

HI-TECH Software PIC LITE Macro Assembler V9.82 build 9453 
                                                                                               Tue Aug 24 18:46:30 2021

HI-TECH Software Omniscient Code Generator (Lite mode) build 9453
     1  0000                     opt subtitle "HI-TECH Software Omniscient Code Generator (Lite mode) build 9453"
     2                           
     3                           opt pagewidth 120
     4                           
     5                           	opt lm
     6                           
     7                           	processor	16F877A
     8                           clrc	macro
     9                           	bcf	3,0
    10  0000                     	endm
    11                           clrz	macro
    12                           	bcf	3,2
    13  0000                     	endm
    14                           setc	macro
    15                           	bsf	3,0
    16  0000                     	endm
    17                           setz	macro
    18                           	bsf	3,2
    19  0000                     	endm
    20                           skipc	macro
    21                           	btfss	3,0
    22  0000                     	endm
    23                           skipz	macro
    24                           	btfss	3,2
    25  0000                     	endm
    26                           skipnc	macro
    27                           	btfsc	3,0
    28  0000                     	endm
    29                           skipnz	macro
    30                           	btfsc	3,2
    31  0000                     	endm
    32  0000                     indf	equ	0
    33  0000                     indf0	equ	0
    34  0002                     pc	equ	2
    35  0002                     pcl	equ	2
    36  0003                     status	equ	3
    37  0004                     fsr	equ	4
    38  0004                     fsr0	equ	4
    39  0001                     c	equ	1
    40  0000                     z	equ	0
    41  000A                     pclath	equ	10
    42                           	FNCALL	_main,_lcd_init
    43                           	FNCALL	_main,_adc_init
    44                           	FNCALL	_main,_adc_value
    45                           	FNCALL	_main,_command
    46                           	FNCALL	_main,_adc_hex
    47                           	FNCALL	_main,_temperature
    48                           	FNCALL	_main,___ftge
    49                           	FNCALL	_main,_lcd_send
    50                           	FNCALL	_temperature,___fttol
    51                           	FNCALL	_temperature,___awmod
    52                           	FNCALL	_temperature,___awdiv
    53                           	FNCALL	_temperature,___awtoft
    54                           	FNCALL	_temperature,___ftneg
    55                           	FNCALL	_temperature,___ftadd
    56                           	FNCALL	_temperature,___ftmul
    57                           	FNCALL	_temperature,_lcd_data
    58                           	FNCALL	_adc_hex,___lwdiv
    59                           	FNCALL	_adc_hex,___lwmod
    60                           	FNCALL	_adc_hex,_lcd_data
    61                           	FNCALL	_adc_value,___lwtoft
    62                           	FNCALL	_adc_value,___ftmul
    63                           	FNCALL	_adc_value,___ftdiv
    64                           	FNCALL	_lcd_send,_lcd_data
    65                           	FNCALL	_lcd_init,_command
    66                           	FNCALL	___lwtoft,___ftpack
    67                           	FNCALL	___awtoft,___ftpack
    68                           	FNCALL	___ftmul,___ftpack
    69                           	FNCALL	___ftdiv,___ftpack
    70                           	FNCALL	___ftadd,___ftpack
    71                           	FNROOT	_main
    72                           	global	_f
    73                           	global	_tempr
    74                           	global	_volt
    75                           	global	temperature@f1
    76                           	global	_a
    77                           	global	_b
    78                           	global	_h
    79                           	global	_hr
    80                           	global	_o
    81                           	global	_t
    82                           	global	_th
    83                           	global	_thr
    84                           	global	_val
    85                           	global	_ADCON0
    86                           psect	text424,local,class=CODE,delta=2
    87                           global __ptext424
    88  0000                     __ptext424:
    89  001F                     _ADCON0	set	31
    90                           	global	_ADRESH
    91  001E                     _ADRESH	set	30
    92                           	global	_PORTA
    93  0005                     _PORTA	set	5
    94                           	global	_PORTB
    95  0006                     _PORTB	set	6
    96                           	global	_PORTD
    97  0008                     _PORTD	set	8
    98                           	global	_CARRY
    99  0018                     _CARRY	set	24
   100                           	global	_GIE
   101  005F                     _GIE	set	95
   102                           	global	_RB1
   103  0031                     _RB1	set	49
   104                           	global	_RB2
   105  0032                     _RB2	set	50
   106                           	global	_RB4
   107  0034                     _RB4	set	52
   108                           	global	_ADCON1
   109  009F                     _ADCON1	set	159
   110                           	global	_ADRESL
   111  009E                     _ADRESL	set	158
   112                           	global	_TRISA
   113  0085                     _TRISA	set	133
   114                           	global	_TRISB
   115  0086                     _TRISB	set	134
   116                           	global	_TRISD
   117  0088                     _TRISD	set	136
   118                           	global	_EEADR
   119  010D                     _EEADR	set	269
   120                           	global	_EEDATA
   121  010C                     _EEDATA	set	268
   122                           	global	_EECON1
   123  018C                     _EECON1	set	396
   124                           	global	_EECON2
   125  018D                     _EECON2	set	397
   126                           	global	_RD
   127  0C60                     _RD	set	3168
   128                           	global	_WR
   129  0C61                     _WR	set	3169
   130                           	global	_WREN
   131  0C62                     _WREN	set	3170
   132                           psect	strings,class=STRING,delta=2
   133                           global __pstrings
   134  0800                     __pstrings:
   135                           ;	global	stringdir,stringtab,__stringbase
   136  0800                     stringtab:
   137                           ;	String table - string pointers are 1 byte each
   138  0800                     stringcode:stringdir:
      + 0800                     stringdir:	
   139  0800  3008               movlw high(stringdir)
   140  0801  008A               movwf pclath
   141  0802  0804               movf fsr,w
   142  0803  0A84               incf fsr
   143  0804  0782               	addwf pc
   144  0805                     __stringbase:
   145  0805  3400               	retlw	0
   146                           psect	strings
   147                           	
   148  0806                     STR_2:	
   149  0806  3454               	retlw	84	;'T'
   150  0807  3465               	retlw	101	;'e'
   151  0808  346D               	retlw	109	;'m'
   152  0809  3470               	retlw	112	;'p'
   153  080A  3465               	retlw	101	;'e'
   154  080B  3472               	retlw	114	;'r'
   155  080C  3461               	retlw	97	;'a'
   156  080D  3474               	retlw	116	;'t'
   157  080E  3475               	retlw	117	;'u'
   158  080F  3472               	retlw	114	;'r'
   159  0810  3465               	retlw	101	;'e'
   160  0811  342D               	retlw	45	;'-'
   161  0812  344E               	retlw	78	;'N'
   162  0813  346F               	retlw	111	;'o'
   163  0814  3472               	retlw	114	;'r'
   164  0815  346D               	retlw	109	;'m'
   165  0816  3461               	retlw	97	;'a'
   166  0817  346C               	retlw	108	;'l'
   167  0818  3400               	retlw	0
   168                           psect	strings
   169                           	
   170  0819                     STR_1:	
   171  0819  3454               	retlw	84	;'T'
   172  081A  3465               	retlw	101	;'e'
   173  081B  346D               	retlw	109	;'m'
   174  081C  3470               	retlw	112	;'p'
   175  081D  3465               	retlw	101	;'e'
   176  081E  3472               	retlw	114	;'r'
   177  081F  3461               	retlw	97	;'a'
   178  0820  3474               	retlw	116	;'t'
   179  0821  3475               	retlw	117	;'u'
   180  0822  3472               	retlw	114	;'r'
   181  0823  3465               	retlw	101	;'e'
   182  0824  342D               	retlw	45	;'-'
   183  0825  344C               	retlw	76	;'L'
   184  0826  346F               	retlw	111	;'o'
   185  0827  3477               	retlw	119	;'w'
   186  0828  3420               	retlw	32	;' '
   187  0829  3400               	retlw	0
   188                           psect	strings
   189                           	
   190  082A                     STR_3:	
   191  082A  3454               	retlw	84	;'T'
   192  082B  3465               	retlw	101	;'e'
   193  082C  346D               	retlw	109	;'m'
   194  082D  3470               	retlw	112	;'p'
   195  082E  3465               	retlw	101	;'e'
   196  082F  3472               	retlw	114	;'r'
   197  0830  3461               	retlw	97	;'a'
   198  0831  3474               	retlw	116	;'t'
   199  0832  3475               	retlw	117	;'u'
   200  0833  3472               	retlw	114	;'r'
   201  0834  3465               	retlw	101	;'e'
   202  0835  342D               	retlw	45	;'-'
   203  0836  3448               	retlw	72	;'H'
   204  0837  3469               	retlw	105	;'i'
   205  0838  3467               	retlw	103	;'g'
   206  0839  3468               	retlw	104	;'h'
   207  083A  3400               	retlw	0
   208                           psect	strings
   209                           	file	"ADC with LM35 and Motor.as"
   210                           	line	#
   211                           psect cinit,class=CODE,delta=2
   212                           global start_initialization
   213  0006                     start_initialization:
   214                           
   215                           psect	bssBANK0,class=BANK0,space=1
   216                           global __pbssBANK0
   217  004C                     __pbssBANK0:
   218  004C                     _f:
   219  004C                            ds      3
   220                           
   221  004F                     _tempr:
   222  004F                            ds      3
   223                           
   224  0052                     _volt:
   225  0052                            ds      3
   226                           
   227  0055                     temperature@f1:
   228  0055                            ds      3
   229                           
   230  0058                     _a:
   231  0058                            ds      2
   232                           
   233  005A                     _b:
   234  005A                            ds      2
   235                           
   236  005C                     _h:
   237  005C                            ds      2
   238                           
   239  005E                     _hr:
   240  005E                            ds      2
   241                           
   242  0060                     _o:
   243  0060                            ds      2
   244                           
   245  0062                     _t:
   246  0062                            ds      2
   247                           
   248  0064                     _th:
   249  0064                            ds      2
   250                           
   251  0066                     _thr:
   252  0066                            ds      2
   253                           
   254  0068                     _val:
   255  0068                            ds      2
   256                           
   257                           psect clrtext,class=CODE,delta=2
   258                           global clear_ram
   259                           ;	Called with FSR containing the base address, and
   260                           ;	W with the last address+1
   261  0E06                     clear_ram:
   262  0E06  0064               	clrwdt			;clear the watchdog before getting into this loop
   263  0E07                     clrloop:
   264  0E07  0180               	clrf	indf		;clear RAM location pointed to by FSR
   265  0E08  0A84               	incf	fsr,f		;increment pointer
   266  0E09  0604               	xorwf	fsr,w		;XOR with final address
   267  0E0A  1903               	btfsc	status,2	;have we reached the end yet?
   268  0E0B  3400               	retlw	0		;all done for this memory range, return
   269  0E0C  0604               	xorwf	fsr,w		;XOR again to restore value
   270  0E0D  2E07               	goto	clrloop		;do the next byte
   271                           
   272                           ; Clear objects allocated to BANK0
   273                           psect cinit,class=CODE,delta=2
   274  0006  1383               	bcf	status, 7	;select IRP bank0
   275  0007  304C               	movlw	low(__pbssBANK0)
   276  0008  0084               	movwf	fsr
   277  0009  306A               	movlw	low((__pbssBANK0)+01Eh)
   278  000A  120A  158A  2606   	fcall	clear_ram
              120A  118A         
   279                           psect cinit,class=CODE,delta=2
   280                           global end_of_initialization
   281                           
   282                           ;End of C runtime variable initialization code
   283                           
   284  000F                     end_of_initialization:
   285  000F  0183               clrf status
   286  0010  120A  118A  2BCE   ljmp _main	;jump to C main() function
   287                           psect	cstackCOMMON,class=COMMON,space=1
   288                           global __pcstackCOMMON
   289  0070                     __pcstackCOMMON:
   290                           	global	?_command
   291  0070                     ?_command:	; 0 bytes @ 0x0
   292                           	global	??_command
   293  0070                     ??_command:	; 0 bytes @ 0x0
   294                           	global	?_lcd_init
   295  0070                     ?_lcd_init:	; 0 bytes @ 0x0
   296                           	global	?_lcd_data
   297  0070                     ?_lcd_data:	; 0 bytes @ 0x0
   298                           	global	??_lcd_data
   299  0070                     ??_lcd_data:	; 0 bytes @ 0x0
   300                           	global	?_lcd_send
   301  0070                     ?_lcd_send:	; 0 bytes @ 0x0
   302                           	global	?_adc_init
   303  0070                     ?_adc_init:	; 0 bytes @ 0x0
   304                           	global	??_adc_init
   305  0070                     ??_adc_init:	; 0 bytes @ 0x0
   306                           	global	?_adc_value
   307  0070                     ?_adc_value:	; 0 bytes @ 0x0
   308                           	global	?_main
   309  0070                     ?_main:	; 0 bytes @ 0x0
   310                           	global	?___ftge
   311  0070                     ?___ftge:	; 1 bit 
   312                           	global	?___lwdiv
   313  0070                     ?___lwdiv:	; 2 bytes @ 0x0
   314                           	global	?___lwmod
   315  0070                     ?___lwmod:	; 2 bytes @ 0x0
   316                           	global	?___awdiv
   317  0070                     ?___awdiv:	; 2 bytes @ 0x0
   318                           	global	?___awmod
   319  0070                     ?___awmod:	; 2 bytes @ 0x0
   320                           	global	?___ftpack
   321  0070                     ?___ftpack:	; 3 bytes @ 0x0
   322                           	global	___lwdiv@divisor
   323  0070                     ___lwdiv@divisor:	; 2 bytes @ 0x0
   324                           	global	___lwmod@divisor
   325  0070                     ___lwmod@divisor:	; 2 bytes @ 0x0
   326                           	global	___awdiv@divisor
   327  0070                     ___awdiv@divisor:	; 2 bytes @ 0x0
   328                           	global	___awmod@divisor
   329  0070                     ___awmod@divisor:	; 2 bytes @ 0x0
   330                           	global	___ftge@ff1
   331  0070                     ___ftge@ff1:	; 3 bytes @ 0x0
   332                           	global	___ftpack@arg
   333  0070                     ___ftpack@arg:	; 3 bytes @ 0x0
   334  0070                     	ds	2
   335                           	global	command@com
   336  0072                     command@com:	; 1 bytes @ 0x2
   337                           	global	lcd_data@rec
   338  0072                     lcd_data@rec:	; 1 bytes @ 0x2
   339                           	global	___lwdiv@dividend
   340  0072                     ___lwdiv@dividend:	; 2 bytes @ 0x2
   341                           	global	___lwmod@dividend
   342  0072                     ___lwmod@dividend:	; 2 bytes @ 0x2
   343                           	global	___awdiv@dividend
   344  0072                     ___awdiv@dividend:	; 2 bytes @ 0x2
   345                           	global	___awmod@dividend
   346  0072                     ___awmod@dividend:	; 2 bytes @ 0x2
   347  0072                     	ds	1
   348                           	global	??_lcd_init
   349  0073                     ??_lcd_init:	; 0 bytes @ 0x3
   350                           	global	??_lcd_send
   351  0073                     ??_lcd_send:	; 0 bytes @ 0x3
   352                           	global	___ftpack@exp
   353  0073                     ___ftpack@exp:	; 1 bytes @ 0x3
   354                           	global	___ftge@ff2
   355  0073                     ___ftge@ff2:	; 3 bytes @ 0x3
   356  0073                     	ds	1
   357                           	global	??___lwdiv
   358  0074                     ??___lwdiv:	; 0 bytes @ 0x4
   359                           	global	??___lwmod
   360  0074                     ??___lwmod:	; 0 bytes @ 0x4
   361                           	global	??___awdiv
   362  0074                     ??___awdiv:	; 0 bytes @ 0x4
   363                           	global	??___awmod
   364  0074                     ??___awmod:	; 0 bytes @ 0x4
   365                           	global	___ftpack@sign
   366  0074                     ___ftpack@sign:	; 1 bytes @ 0x4
   367  0074                     	ds	1
   368                           	global	??___ftpack
   369  0075                     ??___ftpack:	; 0 bytes @ 0x5
   370                           	global	lcd_send@word
   371  0075                     lcd_send@word:	; 1 bytes @ 0x5
   372                           	global	___lwmod@counter
   373  0075                     ___lwmod@counter:	; 1 bytes @ 0x5
   374                           	global	___awdiv@counter
   375  0075                     ___awdiv@counter:	; 1 bytes @ 0x5
   376                           	global	___awmod@counter
   377  0075                     ___awmod@counter:	; 1 bytes @ 0x5
   378                           	global	___lwdiv@quotient
   379  0075                     ___lwdiv@quotient:	; 2 bytes @ 0x5
   380  0075                     	ds	1
   381                           	global	??___ftge
   382  0076                     ??___ftge:	; 0 bytes @ 0x6
   383                           	global	___awdiv@sign
   384  0076                     ___awdiv@sign:	; 1 bytes @ 0x6
   385                           	global	___awmod@sign
   386  0076                     ___awmod@sign:	; 1 bytes @ 0x6
   387  0076                     	ds	1
   388                           	global	___lwdiv@counter
   389  0077                     ___lwdiv@counter:	; 1 bytes @ 0x7
   390                           	global	___awdiv@quotient
   391  0077                     ___awdiv@quotient:	; 2 bytes @ 0x7
   392  0077                     	ds	1
   393                           	global	?_adc_hex
   394  0078                     ?_adc_hex:	; 0 bytes @ 0x8
   395                           	global	?___ftneg
   396  0078                     ?___ftneg:	; 3 bytes @ 0x8
   397                           	global	?___lwtoft
   398  0078                     ?___lwtoft:	; 3 bytes @ 0x8
   399                           	global	?___fttol
   400  0078                     ?___fttol:	; 4 bytes @ 0x8
   401                           	global	adc_hex@val
   402  0078                     adc_hex@val:	; 2 bytes @ 0x8
   403                           	global	___lwtoft@c
   404  0078                     ___lwtoft@c:	; 2 bytes @ 0x8
   405                           	global	___fttol@f1
   406  0078                     ___fttol@f1:	; 3 bytes @ 0x8
   407                           	global	___ftneg@f1
   408  0078                     ___ftneg@f1:	; 3 bytes @ 0x8
   409  0078                     	ds	2
   410                           	global	??_adc_hex
   411  007A                     ??_adc_hex:	; 0 bytes @ 0xA
   412  007A                     	ds	1
   413                           	global	??___ftneg
   414  007B                     ??___ftneg:	; 0 bytes @ 0xB
   415                           	global	??___lwtoft
   416  007B                     ??___lwtoft:	; 0 bytes @ 0xB
   417                           	global	?___awtoft
   418  007B                     ?___awtoft:	; 3 bytes @ 0xB
   419                           	global	___awtoft@c
   420  007B                     ___awtoft@c:	; 2 bytes @ 0xB
   421  007B                     	ds	1
   422                           	global	??_adc_value
   423  007C                     ??_adc_value:	; 0 bytes @ 0xC
   424  007C                     	ds	2
   425                           	global	??_temperature
   426  007E                     ??_temperature:	; 0 bytes @ 0xE
   427                           psect	cstackBANK0,class=BANK0,space=1
   428                           global __pcstackBANK0
   429  0020                     __pcstackBANK0:
   430                           	global	??___fttol
   431  0020                     ??___fttol:	; 0 bytes @ 0x0
   432                           	global	??___awtoft
   433  0020                     ??___awtoft:	; 0 bytes @ 0x0
   434  0020                     	ds	2
   435                           	global	___awtoft@sign
   436  0022                     ___awtoft@sign:	; 1 bytes @ 0x2
   437  0022                     	ds	1
   438                           	global	?___ftadd
   439  0023                     ?___ftadd:	; 3 bytes @ 0x3
   440                           	global	___ftadd@f1
   441  0023                     ___ftadd@f1:	; 3 bytes @ 0x3
   442  0023                     	ds	1
   443                           	global	___fttol@sign1
   444  0024                     ___fttol@sign1:	; 1 bytes @ 0x4
   445  0024                     	ds	1
   446                           	global	___fttol@lval
   447  0025                     ___fttol@lval:	; 4 bytes @ 0x5
   448  0025                     	ds	1
   449                           	global	___ftadd@f2
   450  0026                     ___ftadd@f2:	; 3 bytes @ 0x6
   451  0026                     	ds	3
   452                           	global	??___ftadd
   453  0029                     ??___ftadd:	; 0 bytes @ 0x9
   454                           	global	___fttol@exp1
   455  0029                     ___fttol@exp1:	; 1 bytes @ 0x9
   456  0029                     	ds	1
   457                           	global	?___ftmul
   458  002A                     ?___ftmul:	; 3 bytes @ 0xA
   459                           	global	___ftmul@f1
   460  002A                     ___ftmul@f1:	; 3 bytes @ 0xA
   461  002A                     	ds	3
   462                           	global	___ftadd@sign
   463  002D                     ___ftadd@sign:	; 1 bytes @ 0xD
   464                           	global	___ftmul@f2
   465  002D                     ___ftmul@f2:	; 3 bytes @ 0xD
   466  002D                     	ds	1
   467                           	global	___ftadd@exp2
   468  002E                     ___ftadd@exp2:	; 1 bytes @ 0xE
   469  002E                     	ds	1
   470                           	global	___ftadd@exp1
   471  002F                     ___ftadd@exp1:	; 1 bytes @ 0xF
   472  002F                     	ds	1
   473                           	global	??___ftmul
   474  0030                     ??___ftmul:	; 0 bytes @ 0x10
   475  0030                     	ds	4
   476                           	global	___ftmul@exp
   477  0034                     ___ftmul@exp:	; 1 bytes @ 0x14
   478  0034                     	ds	1
   479                           	global	___ftmul@f3_as_product
   480  0035                     ___ftmul@f3_as_product:	; 3 bytes @ 0x15
   481  0035                     	ds	3
   482                           	global	___ftmul@cntr
   483  0038                     ___ftmul@cntr:	; 1 bytes @ 0x18
   484  0038                     	ds	1
   485                           	global	___ftmul@sign
   486  0039                     ___ftmul@sign:	; 1 bytes @ 0x19
   487  0039                     	ds	1
   488                           	global	?_temperature
   489  003A                     ?_temperature:	; 0 bytes @ 0x1A
   490                           	global	?___ftdiv
   491  003A                     ?___ftdiv:	; 3 bytes @ 0x1A
   492                           	global	temperature@num
   493  003A                     temperature@num:	; 3 bytes @ 0x1A
   494                           	global	___ftdiv@f2
   495  003A                     ___ftdiv@f2:	; 3 bytes @ 0x1A
   496  003A                     	ds	3
   497                           	global	temperature@x1
   498  003D                     temperature@x1:	; 2 bytes @ 0x1D
   499                           	global	___ftdiv@f1
   500  003D                     ___ftdiv@f1:	; 3 bytes @ 0x1D
   501  003D                     	ds	2
   502                           	global	temperature@x2
   503  003F                     temperature@x2:	; 2 bytes @ 0x1F
   504  003F                     	ds	1
   505                           	global	??___ftdiv
   506  0040                     ??___ftdiv:	; 0 bytes @ 0x20
   507  0040                     	ds	1
   508                           	global	temperature@x3
   509  0041                     temperature@x3:	; 2 bytes @ 0x21
   510  0041                     	ds	2
   511                           	global	temperature@x4
   512  0043                     temperature@x4:	; 2 bytes @ 0x23
   513  0043                     	ds	1
   514                           	global	___ftdiv@cntr
   515  0044                     ___ftdiv@cntr:	; 1 bytes @ 0x24
   516  0044                     	ds	1
   517                           	global	temperature@temp
   518  0045                     temperature@temp:	; 2 bytes @ 0x25
   519                           	global	___ftdiv@f3
   520  0045                     ___ftdiv@f3:	; 3 bytes @ 0x25
   521  0045                     	ds	2
   522                           	global	temperature@n
   523  0047                     temperature@n:	; 2 bytes @ 0x27
   524  0047                     	ds	1
   525                           	global	___ftdiv@exp
   526  0048                     ___ftdiv@exp:	; 1 bytes @ 0x28
   527  0048                     	ds	1
   528                           	global	___ftdiv@sign
   529  0049                     ___ftdiv@sign:	; 1 bytes @ 0x29
   530  0049                     	ds	1
   531                           	global	??_main
   532  004A                     ??_main:	; 0 bytes @ 0x2A
   533  004A                     	ds	2
   534 ;;Data sizes: Strings 53, constant 0, data 0, bss 30, persistent 0 stack 0
   535 ;;Auto spaces:   Size  Autos    Used
   536 ;; COMMON          14     14      14
   537 ;; BANK0           80     44      74
   538 ;; BANK1           80      0       0
   539 ;; BANK3           96      0       0
   540 ;; BANK2           96      0       0
   541                           
   542 ;;
   543 ;; Pointer list with targets:
   544                           
   545 ;; ?___ftpack	float  size(1) Largest target is 0
   546 ;;
   547 ;; ?___ftadd	float  size(1) Largest target is 0
   548 ;;
   549 ;; ?___ftneg	float  size(1) Largest target is 0
   550 ;;
   551 ;; ?___awtoft	float  size(1) Largest target is 0
   552 ;;
   553 ;; ?___awdiv	int  size(1) Largest target is 0
   554 ;;
   555 ;; ?___awmod	int  size(1) Largest target is 0
   556 ;;
   557 ;; ?___fttol	long  size(1) Largest target is 0
   558 ;;
   559 ;; ?___lwmod	unsigned int  size(1) Largest target is 0
   560 ;;
   561 ;; ?___lwdiv	unsigned int  size(1) Largest target is 0
   562 ;;
   563 ;; ?___ftmul	float  size(1) Largest target is 0
   564 ;;
   565 ;; ?___ftdiv	float  size(1) Largest target is 0
   566 ;;
   567 ;; ?___lwtoft	float  size(1) Largest target is 0
   568 ;;
   569 ;; lcd_send@word	PTR const unsigned char  size(1) Largest target is 19
   570 ;;		 -> STR_3(CODE[17]), STR_2(CODE[19]), STR_1(CODE[17]), 
   571 ;;
   572                           
   573                           
   574 ;;
   575 ;; Critical Paths under _main in COMMON
   576 ;;
   577 ;;   _main->_adc_value
   578 ;;   _temperature->___awtoft
   579 ;;   _adc_hex->___lwdiv
   580 ;;   _adc_value->___lwtoft
   581 ;;   _lcd_send->_lcd_data
   582 ;;   _lcd_init->_command
   583 ;;   ___lwtoft->___ftpack
   584 ;;   ___awtoft->___ftneg
   585 ;;   ___ftmul->___fttol
   586 ;;   ___ftadd->___awtoft
   587 ;;   ___ftneg->___ftpack
   588 ;;   ___fttol->___ftpack
   589 ;;
   590 ;; Critical Paths under _main in BANK0
   591 ;;
   592 ;;   _temperature->___ftmul
   593 ;;   _adc_value->___ftdiv
   594 ;;   ___ftmul->___fttol
   595 ;;   ___ftdiv->___ftmul
   596 ;;   ___ftadd->___awtoft
   597 ;;
   598 ;; Critical Paths under _main in BANK1
   599 ;;
   600 ;;   None.
   601 ;;
   602 ;; Critical Paths under _main in BANK3
   603 ;;
   604 ;;   None.
   605 ;;
   606 ;; Critical Paths under _main in BANK2
   607 ;;
   608 ;;   None.
   609                           
   610 ;;
   611 ;;Main: autosize = 0, tempsize = 2, incstack = 0, save=0
   612 ;;
   613                           
   614 ;;
   615 ;;Call Graph Tables:
   616 ;;
   617 ;; ---------------------------------------------------------------------------------
   618 ;; (Depth) Function   	        Calls       Base Space   Used Autos Params    Refs
   619 ;; ---------------------------------------------------------------------------------
   620 ;; (0) _main                                                 2     2      0    4982
   621 ;;                                             42 BANK0      2     2      0
   622 ;;                           _lcd_init
   623 ;;                           _adc_init
   624 ;;                          _adc_value
   625 ;;                            _command
   626 ;;                            _adc_hex
   627 ;;                        _temperature
   628 ;;                             ___ftge
   629 ;;                           _lcd_send
   630 ;; ---------------------------------------------------------------------------------
   631 ;; (1) _temperature                                         15    12      3    3093
   632 ;;                                             26 BANK0     15    12      3
   633 ;;                            ___fttol
   634 ;;                            ___awmod
   635 ;;                            ___awdiv
   636 ;;                           ___awtoft
   637 ;;                            ___ftneg
   638 ;;                            ___ftadd
   639 ;;                            ___ftmul
   640 ;;                           _lcd_data
   641 ;; ---------------------------------------------------------------------------------
   642 ;; (1) _adc_hex                                              2     0      2     387
   643 ;;                                              8 COMMON     2     0      2
   644 ;;                            ___lwdiv
   645 ;;                            ___lwmod
   646 ;;                           _lcd_data
   647 ;; ---------------------------------------------------------------------------------
   648 ;; (1) _adc_value                                            2     2      0    1255
   649 ;;                                             12 COMMON     2     2      0
   650 ;;                           ___lwtoft
   651 ;;                            ___ftmul
   652 ;;                            ___ftdiv
   653 ;; ---------------------------------------------------------------------------------
   654 ;; (1) _lcd_send                                             3     3      0      67
   655 ;;                                              3 COMMON     3     3      0
   656 ;;                           _lcd_data
   657 ;; ---------------------------------------------------------------------------------
   658 ;; (1) _lcd_init                                             0     0      0      22
   659 ;;                            _command
   660 ;; ---------------------------------------------------------------------------------
   661 ;; (2) ___lwtoft                                             4     1      3     231
   662 ;;                                              8 COMMON     4     1      3
   663 ;;                           ___ftpack
   664 ;; ---------------------------------------------------------------------------------
   665 ;; (2) ___awtoft                                             6     3      3     300
   666 ;;                                             11 COMMON     3     0      3
   667 ;;                                              0 BANK0      3     3      0
   668 ;;                           ___ftpack
   669 ;;                            ___ftneg (ARG)
   670 ;; ---------------------------------------------------------------------------------
   671 ;; (2) ___ftmul                                             16    10      6     535
   672 ;;                                             10 BANK0     16    10      6
   673 ;;                           ___ftpack
   674 ;;                            ___fttol (ARG)
   675 ;; ---------------------------------------------------------------------------------
   676 ;; (2) ___ftdiv                                             16    10      6     489
   677 ;;                                             26 BANK0     16    10      6
   678 ;;                           ___ftpack
   679 ;;                            ___ftmul (ARG)
   680 ;; ---------------------------------------------------------------------------------
   681 ;; (2) ___ftadd                                             13     7      6    1049
   682 ;;                                              3 BANK0     13     7      6
   683 ;;                           ___ftpack
   684 ;;                            ___ftneg (ARG)
   685 ;;                           ___awtoft (ARG)
   686 ;; ---------------------------------------------------------------------------------
   687 ;; (2) _lcd_data                                             3     3      0      22
   688 ;;                                              0 COMMON     3     3      0
   689 ;; ---------------------------------------------------------------------------------
   690 ;; (1) _command                                              3     3      0      22
   691 ;;                                              0 COMMON     3     3      0
   692 ;; ---------------------------------------------------------------------------------
   693 ;; (2) ___awmod                                              7     3      4     296
   694 ;;                                              0 COMMON     7     3      4
   695 ;; ---------------------------------------------------------------------------------
   696 ;; (1) ___ftge                                              12     6      6     136
   697 ;;                                              0 COMMON    12     6      6
   698 ;; ---------------------------------------------------------------------------------
   699 ;; (2) ___ftneg                                              3     0      3      45
   700 ;;                                              8 COMMON     3     0      3
   701 ;;                           ___ftpack (ARG)
   702 ;; ---------------------------------------------------------------------------------
   703 ;; (2) ___awdiv                                              9     5      4     300
   704 ;;                                              0 COMMON     9     5      4
   705 ;; ---------------------------------------------------------------------------------
   706 ;; (2) ___fttol                                             14    10      4     252
   707 ;;                                              8 COMMON     4     0      4
   708 ;;                                              0 BANK0     10    10      0
   709 ;;                           ___ftpack (ARG)
   710 ;; ---------------------------------------------------------------------------------
   711 ;; (3) ___ftpack                                             8     3      5     209
   712 ;;                                              0 COMMON     8     3      5
   713 ;; ---------------------------------------------------------------------------------
   714 ;; (2) ___lwmod                                              6     2      4     159
   715 ;;                                              0 COMMON     6     2      4
   716 ;; ---------------------------------------------------------------------------------
   717 ;; (2) ___lwdiv                                              8     4      4     162
   718 ;;                                              0 COMMON     8     4      4
   719 ;; ---------------------------------------------------------------------------------
   720 ;; (1) _adc_init                                             0     0      0       0
   721 ;; ---------------------------------------------------------------------------------
   722 ;; Estimated maximum stack depth 3
   723 ;; ---------------------------------------------------------------------------------
   724                           
   725 ;; Call Graph Graphs:
   726                           
   727 ;; _main (ROOT)
   728 ;;   _lcd_init
   729 ;;     _command
   730 ;;   _adc_init
   731 ;;   _adc_value
   732 ;;     ___lwtoft
   733 ;;       ___ftpack
   734 ;;     ___ftmul
   735 ;;       ___ftpack
   736 ;;       ___fttol (ARG)
   737 ;;         ___ftpack (ARG)
   738 ;;     ___ftdiv
   739 ;;       ___ftpack
   740 ;;       ___ftmul (ARG)
   741 ;;         ___ftpack
   742 ;;         ___fttol (ARG)
   743 ;;           ___ftpack (ARG)
   744 ;;   _command
   745 ;;   _adc_hex
   746 ;;     ___lwdiv
   747 ;;     ___lwmod
   748 ;;     _lcd_data
   749 ;;   _temperature
   750 ;;     ___fttol
   751 ;;       ___ftpack (ARG)
   752 ;;     ___awmod
   753 ;;     ___awdiv
   754 ;;     ___awtoft
   755 ;;       ___ftpack
   756 ;;       ___ftneg (ARG)
   757 ;;         ___ftpack (ARG)
   758 ;;     ___ftneg
   759 ;;       ___ftpack (ARG)
   760 ;;     ___ftadd
   761 ;;       ___ftpack
   762 ;;       ___ftneg (ARG)
   763 ;;         ___ftpack (ARG)
   764 ;;       ___awtoft (ARG)
   765 ;;         ___ftpack
   766 ;;         ___ftneg (ARG)
   767 ;;           ___ftpack (ARG)
   768 ;;     ___ftmul
   769 ;;       ___ftpack
   770 ;;       ___fttol (ARG)
   771 ;;         ___ftpack (ARG)
   772 ;;     _lcd_data
   773 ;;   ___ftge
   774 ;;   _lcd_send
   775 ;;     _lcd_data
   776 ;;
   777                           
   778 ;; Address spaces:
   779                           
   780 ;;Name               Size   Autos  Total    Cost      Usage
   781 ;;BITCOMMON            E      0       0       0        0.0%
   782 ;;EEDATA             100      0       0       0        0.0%
   783 ;;NULL                 0      0       0       0        0.0%
   784 ;;CODE                 0      0       0       0        0.0%
   785 ;;COMMON               E      E       E       1      100.0%
   786 ;;BITSFR0              0      0       0       1        0.0%
   787 ;;SFR0                 0      0       0       1        0.0%
   788 ;;BITSFR1              0      0       0       2        0.0%
   789 ;;SFR1                 0      0       0       2        0.0%
   790 ;;STACK                0      0       3       2        0.0%
   791 ;;ABS                  0      0      58       3        0.0%
   792 ;;BITBANK0            50      0       0       4        0.0%
   793 ;;BITSFR3              0      0       0       4        0.0%
   794 ;;SFR3                 0      0       0       4        0.0%
   795 ;;BANK0               50     2C      4A       5       92.5%
   796 ;;BITSFR2              0      0       0       5        0.0%
   797 ;;SFR2                 0      0       0       5        0.0%
   798 ;;BITBANK1            50      0       0       6        0.0%
   799 ;;BANK1               50      0       0       7        0.0%
   800 ;;BITBANK3            60      0       0       8        0.0%
   801 ;;BANK3               60      0       0       9        0.0%
   802 ;;BITBANK2            60      0       0      10        0.0%
   803 ;;BANK2               60      0       0      11        0.0%
   804 ;;DATA                 0      0      5B      12        0.0%
   805                           
   806                           	global	_main
   807                           psect	maintext,global,class=CODE,delta=2
   808                           global __pmaintext
   809  03CE                     __pmaintext:
   810                           
   811 ;; *************** function _main *****************
   812 ;; Defined at:
   813 ;;		line 121 in file "C:\Users\Mugi\Desktop\Mugi storage\Program files\Mp Lab Programs\ADC with LM35 and Motor\ADC with 
       LM35 and Motor.c"
   814 ;; Parameters:    Size  Location     Type
   815 ;;		None
   816 ;; Auto vars:     Size  Location     Type
   817 ;;		None
   818 ;; Return value:  Size  Location     Type
   819 ;;		None               void
   820 ;; Registers used:
   821 ;;		wreg, fsr0l, fsr0h, status,2, status,0, pclath, cstack
   822 ;; Tracked objects:
   823 ;;		On entry : 17F/0
   824 ;;		On exit  : 0/0
   825 ;;		Unchanged: 0/0
   826 ;; Data sizes:     COMMON   BANK0   BANK1   BANK3   BANK2
   827 ;;      Params:         0       0       0       0       0
   828 ;;      Locals:         0       0       0       0       0
   829 ;;      Temps:          0       2       0       0       0
   830 ;;      Totals:         0       2       0       0       0
   831 ;;Total ram usage:        2 bytes
   832 ;; Hardware stack levels required when called:    3
   833 ;; This function calls:
   834 ;;		_lcd_init
   835 ;;		_adc_init
   836 ;;		_adc_value
   837 ;;		_command
   838 ;;		_adc_hex
   839 ;;		_temperature
   840 ;;		___ftge
   841 ;;		_lcd_send
   842 ;; This function is called by:
   843 ;;		Startup code after reset
   844 ;; This function uses a non-reentrant model
   845 ;;
   846                           psect	maintext
   847                           	file	"C:\Users\Mugi\Desktop\Mugi storage\Program files\Mp Lab Programs\ADC with LM35 an
                                 d Motor\ADC with LM35 and Motor.c"
   848                           	line	121
   849                           	global	__size_of_main
   850  00E3                     	__size_of_main	equ	__end_of_main-_main
   851                           	
   852  03CE                     _main:	
   853                           	opt	stack 5
   854                           ; Regs used in _main: [wreg-fsr0h+status,2+status,0+pclath+cstack]
   855                           	line	122
   856                           	
   857  03CE                     l3723:	
   858                           ;ADC with LM35 and Motor.c: 122: TRISA = 0x01;
   859  03CE  3001               	movlw	(01h)
   860  03CF  1683               	bsf	status, 5	;RP0=1, select bank1
   861  03D0  1303               	bcf	status, 6	;RP1=0, select bank1
   862  03D1  0085               	movwf	(133)^080h	;volatile
   863                           	line	123
   864                           	
   865  03D2                     l3725:	
   866                           ;ADC with LM35 and Motor.c: 123: PORTA = 0x00;
   867  03D2  1283               	bcf	status, 5	;RP0=0, select bank0
   868  03D3  1303               	bcf	status, 6	;RP1=0, select bank0
   869  03D4  0185               	clrf	(5)	;volatile
   870                           	line	125
   871                           	
   872  03D5                     l3727:	
   873                           ;ADC with LM35 and Motor.c: 125: TRISB = 0x00;
   874  03D5  1683               	bsf	status, 5	;RP0=1, select bank1
   875  03D6  1303               	bcf	status, 6	;RP1=0, select bank1
   876  03D7  0186               	clrf	(134)^080h	;volatile
   877                           	line	126
   878                           	
   879  03D8                     l3729:	
   880                           ;ADC with LM35 and Motor.c: 126: PORTB = 0x00;
   881  03D8  1283               	bcf	status, 5	;RP0=0, select bank0
   882  03D9  1303               	bcf	status, 6	;RP1=0, select bank0
   883  03DA  0186               	clrf	(6)	;volatile
   884                           	line	131
   885                           	
   886  03DB                     l3731:	
   887                           ;ADC with LM35 and Motor.c: 131: TRISD = 0x00;
   888  03DB  1683               	bsf	status, 5	;RP0=1, select bank1
   889  03DC  1303               	bcf	status, 6	;RP1=0, select bank1
   890  03DD  0188               	clrf	(136)^080h	;volatile
   891                           	line	132
   892                           	
   893  03DE                     l3733:	
   894                           ;ADC with LM35 and Motor.c: 132: PORTD = 0x00;
   895  03DE  1283               	bcf	status, 5	;RP0=0, select bank0
   896  03DF  1303               	bcf	status, 6	;RP1=0, select bank0
   897  03E0  0188               	clrf	(8)	;volatile
   898                           	line	134
   899                           	
   900  03E1                     l3735:	
   901                           ;ADC with LM35 and Motor.c: 134: lcd_init();
   902  03E1  120A  158A  2659   	fcall	_lcd_init
              120A  118A         
   903                           	line	135
   904                           	
   905  03E6                     l3737:	
   906                           ;ADC with LM35 and Motor.c: 135: adc_init();
   907  03E6  120A  158A  2601   	fcall	_adc_init
              120A  118A         
   908  03EB  2BEC               	goto	l3739
   909                           	line	137
   910                           ;ADC with LM35 and Motor.c: 137: while(1)
   911                           	
   912  03EC                     l742:	
   913                           	line	139
   914                           	
   915  03EC                     l3739:	
   916                           ;ADC with LM35 and Motor.c: 138: {
   917                           ;ADC with LM35 and Motor.c: 139: adc_value();
   918  03EC  120A  118A  212C   	fcall	_adc_value
              120A  118A         
   919                           	line	142
   920                           	
   921  03F1                     l3741:	
   922                           ;ADC with LM35 and Motor.c: 142: command(0xc3);
   923  03F1  30C3               	movlw	(0C3h)
   924  03F2  120A  158A  261A   	fcall	_command
              120A  118A         
   925                           	line	143
   926                           	
   927  03F7                     l3743:	
   928                           ;ADC with LM35 and Motor.c: 143: adc_hex(val);
   929  03F7  1283               	bcf	status, 5	;RP0=0, select bank0
   930  03F8  1303               	bcf	status, 6	;RP1=0, select bank0
   931  03F9  0869               	movf	(_val+1),w
   932  03FA  01F9               	clrf	(?_adc_hex+1)
   933  03FB  07F9               	addwf	(?_adc_hex+1)
   934  03FC  0868               	movf	(_val),w
   935  03FD  01F8               	clrf	(?_adc_hex)
   936  03FE  07F8               	addwf	(?_adc_hex)
   937                           
   938  03FF  120A  118A  2259   	fcall	_adc_hex
              120A  118A         
   939                           	line	144
   940                           	
   941  0404                     l3745:	
   942                           ;ADC with LM35 and Motor.c: 144: command(0xCA);
   943  0404  30CA               	movlw	(0CAh)
   944  0405  120A  158A  261A   	fcall	_command
              120A  118A         
   945                           	line	145
   946                           	
   947  040A                     l3747:	
   948                           ;ADC with LM35 and Motor.c: 145: temperature(tempr);
   949  040A  1283               	bcf	status, 5	;RP0=0, select bank0
   950  040B  1303               	bcf	status, 6	;RP1=0, select bank0
   951  040C  084F               	movf	(_tempr),w
   952  040D  00BA               	movwf	(?_temperature)
   953  040E  0850               	movf	(_tempr+1),w
   954  040F  00BB               	movwf	(?_temperature+1)
   955  0410  0851               	movf	(_tempr+2),w
   956  0411  00BC               	movwf	(?_temperature+2)
   957  0412  120A  118A  259F   	fcall	_temperature
              120A  118A         
   958                           	line	146
   959                           	
   960  0417                     l3749:	
   961                           ;ADC with LM35 and Motor.c: 146: _delay((unsigned long)((10)*(20e6/4000.0)));
   962                           	opt asmopt_off
   963  0417  3041               movlw	65
   964  0418  1283               	bcf	status, 5	;RP0=0, select bank0
   965  0419  1303               	bcf	status, 6	;RP1=0, select bank0
   966  041A  00CB               movwf	((??_main+0)+0+1),f
   967  041B  30EE               	movlw	238
   968  041C  00CA               movwf	((??_main+0)+0),f
   969  041D                     u3467:
   970  041D  0BCA               	decfsz	((??_main+0)+0),f
   971  041E  2C1D               	goto	u3467
   972  041F  0BCB               	decfsz	((??_main+0)+0+1),f
   973  0420  2C1D               	goto	u3467
   974  0421  0064               	clrwdt
   975                           opt asmopt_on
   976                           
   977                           	line	150
   978                           	
   979  0422                     l3751:	
   980                           ;ADC with LM35 and Motor.c: 150: RB4 = 0x00;
   981  0422  1283               	bcf	status, 5	;RP0=0, select bank0
   982  0423  1303               	bcf	status, 6	;RP1=0, select bank0
   983  0424  1206               	bcf	(52/8),(52)&7
   984                           	line	152
   985                           	
   986  0425                     l3753:	
   987                           ;ADC with LM35 and Motor.c: 152: if(tempr < 25)
   988  0425  084F               	movf	(_tempr),w
   989  0426  00F0               	movwf	(?___ftge)
   990  0427  0850               	movf	(_tempr+1),w
   991  0428  00F1               	movwf	(?___ftge+1)
   992  0429  0851               	movf	(_tempr+2),w
   993  042A  00F2               	movwf	(?___ftge+2)
   994  042B  3000               	movlw	0x0
   995  042C  00F3               	movwf	0+(?___ftge)+03h
   996  042D  30C8               	movlw	0xc8
   997  042E  00F4               	movwf	1+(?___ftge)+03h
   998  042F  3041               	movlw	0x41
   999  0430  00F5               	movwf	2+(?___ftge)+03h
  1000  0431  120A  158A  2794   	fcall	___ftge
              120A  118A         
  1001  0436  1803               	btfsc	status,0
  1002  0437  2C39               	goto	u3421
  1003  0438  2C3A               	goto	u3420
  1004  0439                     u3421:
  1005  0439  2C4A               	goto	l3761
  1006  043A                     u3420:
  1007                           	line	154
  1008                           	
  1009  043A                     l3755:	
  1010                           ;ADC with LM35 and Motor.c: 153: {
  1011                           ;ADC with LM35 and Motor.c: 154: RB4 = 0x01;
  1012  043A  1283               	bcf	status, 5	;RP0=0, select bank0
  1013  043B  1303               	bcf	status, 6	;RP1=0, select bank0
  1014  043C  1606               	bsf	(52/8),(52)&7
  1015                           	line	155
  1016                           	
  1017  043D                     l3757:	
  1018                           ;ADC with LM35 and Motor.c: 155: command(0x80);
  1019  043D  3080               	movlw	(080h)
  1020  043E  120A  158A  261A   	fcall	_command
              120A  118A         
  1021                           	line	156
  1022                           	
  1023  0443                     l3759:	
  1024                           ;ADC with LM35 and Motor.c: 156: lcd_send("Temperature-Low ");
  1025  0443  3014               	movlw	((STR_1-__stringbase))&0ffh
  1026  0444  120A  118A  2013   	fcall	_lcd_send
              120A  118A         
  1027  0449  2C4A               	goto	l3761
  1028                           	line	157
  1029                           	
  1030  044A                     l743:	
  1031                           	line	159
  1032                           	
  1033  044A                     l3761:	
  1034                           ;ADC with LM35 and Motor.c: 157: }
  1035                           ;ADC with LM35 and Motor.c: 159: if(tempr > 25 && tempr < 75)
  1036  044A  3000               	movlw	0x0
  1037  044B  00F0               	movwf	(?___ftge)
  1038  044C  30C8               	movlw	0xc8
  1039  044D  00F1               	movwf	(?___ftge+1)
  1040  044E  3041               	movlw	0x41
  1041  044F  00F2               	movwf	(?___ftge+2)
  1042  0450  1283               	bcf	status, 5	;RP0=0, select bank0
  1043  0451  1303               	bcf	status, 6	;RP1=0, select bank0
  1044  0452  084F               	movf	(_tempr),w
  1045  0453  00F3               	movwf	0+(?___ftge)+03h
  1046  0454  0850               	movf	(_tempr+1),w
  1047  0455  00F4               	movwf	1+(?___ftge)+03h
  1048  0456  0851               	movf	(_tempr+2),w
  1049  0457  00F5               	movwf	2+(?___ftge)+03h
  1050  0458  120A  158A  2794   	fcall	___ftge
              120A  118A         
  1051  045D  1803               	btfsc	status,0
  1052  045E  2C60               	goto	u3431
  1053  045F  2C61               	goto	u3430
  1054  0460                     u3431:
  1055  0460  2C85               	goto	l3769
  1056  0461                     u3430:
  1057                           	
  1058  0461                     l3763:	
  1059  0461  1283               	bcf	status, 5	;RP0=0, select bank0
  1060  0462  1303               	bcf	status, 6	;RP1=0, select bank0
  1061  0463  084F               	movf	(_tempr),w
  1062  0464  00F0               	movwf	(?___ftge)
  1063  0465  0850               	movf	(_tempr+1),w
  1064  0466  00F1               	movwf	(?___ftge+1)
  1065  0467  0851               	movf	(_tempr+2),w
  1066  0468  00F2               	movwf	(?___ftge+2)
  1067  0469  3000               	movlw	0x0
  1068  046A  00F3               	movwf	0+(?___ftge)+03h
  1069  046B  3096               	movlw	0x96
  1070  046C  00F4               	movwf	1+(?___ftge)+03h
  1071  046D  3042               	movlw	0x42
  1072  046E  00F5               	movwf	2+(?___ftge)+03h
  1073  046F  120A  158A  2794   	fcall	___ftge
              120A  118A         
  1074  0474  1803               	btfsc	status,0
  1075  0475  2C77               	goto	u3441
  1076  0476  2C78               	goto	u3440
  1077  0477                     u3441:
  1078  0477  2C85               	goto	l3769
  1079  0478                     u3440:
  1080                           	line	161
  1081                           	
  1082  0478                     l3765:	
  1083                           ;ADC with LM35 and Motor.c: 160: {
  1084                           ;ADC with LM35 and Motor.c: 161: command(0x80);
  1085  0478  3080               	movlw	(080h)
  1086  0479  120A  158A  261A   	fcall	_command
              120A  118A         
  1087                           	line	162
  1088                           	
  1089  047E                     l3767:	
  1090                           ;ADC with LM35 and Motor.c: 162: lcd_send("Temperature-Normal");
  1091  047E  3001               	movlw	((STR_2-__stringbase))&0ffh
  1092  047F  120A  118A  2013   	fcall	_lcd_send
              120A  118A         
  1093  0484  2C85               	goto	l3769
  1094                           	line	163
  1095                           	
  1096  0485                     l744:	
  1097                           	line	165
  1098                           	
  1099  0485                     l3769:	
  1100                           ;ADC with LM35 and Motor.c: 163: }
  1101                           ;ADC with LM35 and Motor.c: 165: if(tempr > 75)
  1102  0485  3000               	movlw	0x0
  1103  0486  00F0               	movwf	(?___ftge)
  1104  0487  3096               	movlw	0x96
  1105  0488  00F1               	movwf	(?___ftge+1)
  1106  0489  3042               	movlw	0x42
  1107  048A  00F2               	movwf	(?___ftge+2)
  1108  048B  1283               	bcf	status, 5	;RP0=0, select bank0
  1109  048C  1303               	bcf	status, 6	;RP1=0, select bank0
  1110  048D  084F               	movf	(_tempr),w
  1111  048E  00F3               	movwf	0+(?___ftge)+03h
  1112  048F  0850               	movf	(_tempr+1),w
  1113  0490  00F4               	movwf	1+(?___ftge)+03h
  1114  0491  0851               	movf	(_tempr+2),w
  1115  0492  00F5               	movwf	2+(?___ftge)+03h
  1116  0493  120A  158A  2794   	fcall	___ftge
              120A  118A         
  1117  0498  1803               	btfsc	status,0
  1118  0499  2C9B               	goto	u3451
  1119  049A  2C9C               	goto	u3450
  1120  049B                     u3451:
  1121  049B  2BEC               	goto	l3739
  1122  049C                     u3450:
  1123                           	line	167
  1124                           	
  1125  049C                     l3771:	
  1126                           ;ADC with LM35 and Motor.c: 166: {
  1127                           ;ADC with LM35 and Motor.c: 167: RB4 = 0x01;
  1128  049C  1283               	bcf	status, 5	;RP0=0, select bank0
  1129  049D  1303               	bcf	status, 6	;RP1=0, select bank0
  1130  049E  1606               	bsf	(52/8),(52)&7
  1131                           	line	168
  1132                           	
  1133  049F                     l3773:	
  1134                           ;ADC with LM35 and Motor.c: 168: command(0x80);
  1135  049F  3080               	movlw	(080h)
  1136  04A0  120A  158A  261A   	fcall	_command
              120A  118A         
  1137                           	line	169
  1138                           	
  1139  04A5                     l3775:	
  1140                           ;ADC with LM35 and Motor.c: 169: lcd_send("Temperature-High");
  1141  04A5  3025               	movlw	((STR_3-__stringbase))&0ffh
  1142  04A6  120A  118A  2013   	fcall	_lcd_send
              120A  118A         
  1143  04AB  2BEC               	goto	l3739
  1144                           	line	170
  1145                           	
  1146  04AC                     l745:	
  1147  04AC  2BEC               	goto	l3739
  1148                           	line	200
  1149                           	
  1150  04AD                     l746:	
  1151                           	line	137
  1152  04AD  2BEC               	goto	l3739
  1153                           	
  1154  04AE                     l747:	
  1155                           	line	201
  1156                           	
  1157  04AE                     l748:	
  1158                           	global	start
  1159  04AE  120A  118A  2800   	ljmp	start
  1160                           	opt stack 0
  1161                           GLOBAL	__end_of_main
  1162  04B1                     	__end_of_main:
  1163 ;; =============== function _main ends ============
  1164                           
  1165                           	signat	_main,88
  1166                           	global	_temperature
  1167                           psect	text425,local,class=CODE,delta=2
  1168                           global __ptext425
  1169  059F                     __ptext425:
  1170                           
  1171 ;; *************** function _temperature *****************
  1172 ;; Defined at:
  1173 ;;		line 97 in file "C:\Users\Mugi\Desktop\Mugi storage\Program files\Mp Lab Programs\ADC with LM35 and Motor\ADC with L
       M35 and Motor.c"
  1174 ;; Parameters:    Size  Location     Type
  1175 ;;  num             3   26[BANK0 ] float 
  1176 ;; Auto vars:     Size  Location     Type
  1177 ;;  n               2   39[BANK0 ] int 
  1178 ;;  temp            2   37[BANK0 ] int 
  1179 ;;  x4              2   35[BANK0 ] int 
  1180 ;;  x3              2   33[BANK0 ] int 
  1181 ;;  x2              2   31[BANK0 ] int 
  1182 ;;  x1              2   29[BANK0 ] int 
  1183 ;; Return value:  Size  Location     Type
  1184 ;;		None               void
  1185 ;; Registers used:
  1186 ;;		wreg, status,2, status,0, pclath, cstack
  1187 ;; Tracked objects:
  1188 ;;		On entry : 0/0
  1189 ;;		On exit  : 0/0
  1190 ;;		Unchanged: 0/0
  1191 ;; Data sizes:     COMMON   BANK0   BANK1   BANK3   BANK2
  1192 ;;      Params:         0       3       0       0       0
  1193 ;;      Locals:         0      12       0       0       0
  1194 ;;      Temps:          0       0       0       0       0
  1195 ;;      Totals:         0      15       0       0       0
  1196 ;;Total ram usage:       15 bytes
  1197 ;; Hardware stack levels used:    1
  1198 ;; Hardware stack levels required when called:    2
  1199 ;; This function calls:
  1200 ;;		___fttol
  1201 ;;		___awmod
  1202 ;;		___awdiv
  1203 ;;		___awtoft
  1204 ;;		___ftneg
  1205 ;;		___ftadd
  1206 ;;		___ftmul
  1207 ;;		_lcd_data
  1208 ;; This function is called by:
  1209 ;;		_main
  1210 ;; This function uses a non-reentrant model
  1211 ;;
  1212                           psect	text425
  1213                           	file	"C:\Users\Mugi\Desktop\Mugi storage\Program files\Mp Lab Programs\ADC with LM35 an
                                 d Motor\ADC with LM35 and Motor.c"
  1214                           	line	97
  1215                           	global	__size_of_temperature
  1216  011B                     	__size_of_temperature	equ	__end_of_temperature-_temperature
  1217                           	
  1218  059F                     _temperature:	
  1219                           	opt	stack 5
  1220                           ; Regs used in _temperature: [wreg+status,2+status,0+pclath+cstack]
  1221                           	line	100
  1222                           	
  1223  059F                     l3721:	
  1224                           ;ADC with LM35 and Motor.c: 98: static float f1;
  1225                           ;ADC with LM35 and Motor.c: 99: int x1,x2,x3,x4,n,temp;
  1226                           ;ADC with LM35 and Motor.c: 100: n = num;
  1227  059F  1283               	bcf	status, 5	;RP0=0, select bank0
  1228  05A0  1303               	bcf	status, 6	;RP1=0, select bank0
  1229  05A1  083A               	movf	(temperature@num),w
  1230  05A2  00F8               	movwf	(?___fttol)
  1231  05A3  083B               	movf	(temperature@num+1),w
  1232  05A4  00F9               	movwf	(?___fttol+1)
  1233  05A5  083C               	movf	(temperature@num+2),w
  1234  05A6  00FA               	movwf	(?___fttol+2)
  1235  05A7  120A  118A  21B3   	fcall	___fttol
              120A  118A         
  1236  05AC  0879               	movf	1+(((0+(?___fttol)))),w
  1237  05AD  1283               	bcf	status, 5	;RP0=0, select bank0
  1238  05AE  1303               	bcf	status, 6	;RP1=0, select bank0
  1239  05AF  01C8               	clrf	(temperature@n+1)
  1240  05B0  07C8               	addwf	(temperature@n+1)
  1241  05B1  0878               	movf	0+(((0+(?___fttol)))),w
  1242  05B2  01C7               	clrf	(temperature@n)
  1243  05B3  07C7               	addwf	(temperature@n)
  1244                           
  1245                           	line	101
  1246                           ;ADC with LM35 and Motor.c: 101: temp = num;
  1247  05B4  083A               	movf	(temperature@num),w
  1248  05B5  00F8               	movwf	(?___fttol)
  1249  05B6  083B               	movf	(temperature@num+1),w
  1250  05B7  00F9               	movwf	(?___fttol+1)
  1251  05B8  083C               	movf	(temperature@num+2),w
  1252  05B9  00FA               	movwf	(?___fttol+2)
  1253  05BA  120A  118A  21B3   	fcall	___fttol
              120A  118A         
  1254  05BF  0879               	movf	1+(((0+(?___fttol)))),w
  1255  05C0  1283               	bcf	status, 5	;RP0=0, select bank0
  1256  05C1  1303               	bcf	status, 6	;RP1=0, select bank0
  1257  05C2  01C6               	clrf	(temperature@temp+1)
  1258  05C3  07C6               	addwf	(temperature@temp+1)
  1259  05C4  0878               	movf	0+(((0+(?___fttol)))),w
  1260  05C5  01C5               	clrf	(temperature@temp)
  1261  05C6  07C5               	addwf	(temperature@temp)
  1262                           
  1263                           	line	102
  1264                           ;ADC with LM35 and Motor.c: 102: x1 = n%10;
  1265  05C7  300A               	movlw	low(0Ah)
  1266  05C8  00F0               	movwf	(?___awmod)
  1267  05C9  3000               	movlw	high(0Ah)
  1268  05CA  00F1               	movwf	((?___awmod))+1
  1269  05CB  0848               	movf	(temperature@n+1),w
  1270  05CC  01F3               	clrf	1+(?___awmod)+02h
  1271  05CD  07F3               	addwf	1+(?___awmod)+02h
  1272  05CE  0847               	movf	(temperature@n),w
  1273  05CF  01F2               	clrf	0+(?___awmod)+02h
  1274  05D0  07F2               	addwf	0+(?___awmod)+02h
  1275                           
  1276  05D1  120A  158A  272E   	fcall	___awmod
              120A  118A         
  1277  05D6  0871               	movf	(1+(?___awmod)),w
  1278  05D7  1283               	bcf	status, 5	;RP0=0, select bank0
  1279  05D8  1303               	bcf	status, 6	;RP1=0, select bank0
  1280  05D9  01BE               	clrf	(temperature@x1+1)
  1281  05DA  07BE               	addwf	(temperature@x1+1)
  1282  05DB  0870               	movf	(0+(?___awmod)),w
  1283  05DC  01BD               	clrf	(temperature@x1)
  1284  05DD  07BD               	addwf	(temperature@x1)
  1285                           
  1286                           	line	103
  1287                           ;ADC with LM35 and Motor.c: 103: n = n/10;
  1288  05DE  300A               	movlw	low(0Ah)
  1289  05DF  00F0               	movwf	(?___awdiv)
  1290  05E0  3000               	movlw	high(0Ah)
  1291  05E1  00F1               	movwf	((?___awdiv))+1
  1292  05E2  0848               	movf	(temperature@n+1),w
  1293  05E3  01F3               	clrf	1+(?___awdiv)+02h
  1294  05E4  07F3               	addwf	1+(?___awdiv)+02h
  1295  05E5  0847               	movf	(temperature@n),w
  1296  05E6  01F2               	clrf	0+(?___awdiv)+02h
  1297  05E7  07F2               	addwf	0+(?___awdiv)+02h
  1298                           
  1299  05E8  120A  118A  203D   	fcall	___awdiv
              120A  118A         
  1300  05ED  0871               	movf	(1+(?___awdiv)),w
  1301  05EE  1283               	bcf	status, 5	;RP0=0, select bank0
  1302  05EF  1303               	bcf	status, 6	;RP1=0, select bank0
  1303  05F0  01C8               	clrf	(temperature@n+1)
  1304  05F1  07C8               	addwf	(temperature@n+1)
  1305  05F2  0870               	movf	(0+(?___awdiv)),w
  1306  05F3  01C7               	clrf	(temperature@n)
  1307  05F4  07C7               	addwf	(temperature@n)
  1308                           
  1309                           	line	104
  1310                           ;ADC with LM35 and Motor.c: 104: x2 = n%10;
  1311  05F5  300A               	movlw	low(0Ah)
  1312  05F6  00F0               	movwf	(?___awmod)
  1313  05F7  3000               	movlw	high(0Ah)
  1314  05F8  00F1               	movwf	((?___awmod))+1
  1315  05F9  0848               	movf	(temperature@n+1),w
  1316  05FA  01F3               	clrf	1+(?___awmod)+02h
  1317  05FB  07F3               	addwf	1+(?___awmod)+02h
  1318  05FC  0847               	movf	(temperature@n),w
  1319  05FD  01F2               	clrf	0+(?___awmod)+02h
  1320  05FE  07F2               	addwf	0+(?___awmod)+02h
  1321                           
  1322  05FF  120A  158A  272E   	fcall	___awmod
              120A  118A         
  1323  0604  0871               	movf	(1+(?___awmod)),w
  1324  0605  1283               	bcf	status, 5	;RP0=0, select bank0
  1325  0606  1303               	bcf	status, 6	;RP1=0, select bank0
  1326  0607  01C0               	clrf	(temperature@x2+1)
  1327  0608  07C0               	addwf	(temperature@x2+1)
  1328  0609  0870               	movf	(0+(?___awmod)),w
  1329  060A  01BF               	clrf	(temperature@x2)
  1330  060B  07BF               	addwf	(temperature@x2)
  1331                           
  1332                           	line	105
  1333                           ;ADC with LM35 and Motor.c: 105: n = n/10;
  1334  060C  300A               	movlw	low(0Ah)
  1335  060D  00F0               	movwf	(?___awdiv)
  1336  060E  3000               	movlw	high(0Ah)
  1337  060F  00F1               	movwf	((?___awdiv))+1
  1338  0610  0848               	movf	(temperature@n+1),w
  1339  0611  01F3               	clrf	1+(?___awdiv)+02h
  1340  0612  07F3               	addwf	1+(?___awdiv)+02h
  1341  0613  0847               	movf	(temperature@n),w
  1342  0614  01F2               	clrf	0+(?___awdiv)+02h
  1343  0615  07F2               	addwf	0+(?___awdiv)+02h
  1344                           
  1345  0616  120A  118A  203D   	fcall	___awdiv
              120A  118A         
  1346  061B  0871               	movf	(1+(?___awdiv)),w
  1347  061C  1283               	bcf	status, 5	;RP0=0, select bank0
  1348  061D  1303               	bcf	status, 6	;RP1=0, select bank0
  1349  061E  01C8               	clrf	(temperature@n+1)
  1350  061F  07C8               	addwf	(temperature@n+1)
  1351  0620  0870               	movf	(0+(?___awdiv)),w
  1352  0621  01C7               	clrf	(temperature@n)
  1353  0622  07C7               	addwf	(temperature@n)
  1354                           
  1355                           	line	106
  1356                           ;ADC with LM35 and Motor.c: 106: x3 = n%10;
  1357  0623  300A               	movlw	low(0Ah)
  1358  0624  00F0               	movwf	(?___awmod)
  1359  0625  3000               	movlw	high(0Ah)
  1360  0626  00F1               	movwf	((?___awmod))+1
  1361  0627  0848               	movf	(temperature@n+1),w
  1362  0628  01F3               	clrf	1+(?___awmod)+02h
  1363  0629  07F3               	addwf	1+(?___awmod)+02h
  1364  062A  0847               	movf	(temperature@n),w
  1365  062B  01F2               	clrf	0+(?___awmod)+02h
  1366  062C  07F2               	addwf	0+(?___awmod)+02h
  1367                           
  1368  062D  120A  158A  272E   	fcall	___awmod
              120A  118A         
  1369  0632  0871               	movf	(1+(?___awmod)),w
  1370  0633  1283               	bcf	status, 5	;RP0=0, select bank0
  1371  0634  1303               	bcf	status, 6	;RP1=0, select bank0
  1372  0635  01C2               	clrf	(temperature@x3+1)
  1373  0636  07C2               	addwf	(temperature@x3+1)
  1374  0637  0870               	movf	(0+(?___awmod)),w
  1375  0638  01C1               	clrf	(temperature@x3)
  1376  0639  07C1               	addwf	(temperature@x3)
  1377                           
  1378                           	line	107
  1379                           ;ADC with LM35 and Motor.c: 107: f1 = num - temp;
  1380  063A  083A               	movf	(temperature@num),w
  1381  063B  00A3               	movwf	(?___ftadd)
  1382  063C  083B               	movf	(temperature@num+1),w
  1383  063D  00A4               	movwf	(?___ftadd+1)
  1384  063E  083C               	movf	(temperature@num+2),w
  1385  063F  00A5               	movwf	(?___ftadd+2)
  1386  0640  0846               	movf	(temperature@temp+1),w
  1387  0641  01FC               	clrf	(?___awtoft+1)
  1388  0642  07FC               	addwf	(?___awtoft+1)
  1389  0643  0845               	movf	(temperature@temp),w
  1390  0644  01FB               	clrf	(?___awtoft)
  1391  0645  07FB               	addwf	(?___awtoft)
  1392                           
  1393  0646  120A  158A  2672   	fcall	___awtoft
              120A  118A         
  1394  064B  087B               	movf	(0+(?___awtoft)),w
  1395  064C  00F8               	movwf	(?___ftneg)
  1396  064D  087C               	movf	(1+(?___awtoft)),w
  1397  064E  00F9               	movwf	(?___ftneg+1)
  1398  064F  087D               	movf	(2+(?___awtoft)),w
  1399  0650  00FA               	movwf	(?___ftneg+2)
  1400  0651  120A  158A  260E   	fcall	___ftneg
              120A  118A         
  1401  0656  0878               	movf	(0+(?___ftneg)),w
  1402  0657  1283               	bcf	status, 5	;RP0=0, select bank0
  1403  0658  1303               	bcf	status, 6	;RP1=0, select bank0
  1404  0659  00A6               	movwf	0+(?___ftadd)+03h
  1405  065A  0879               	movf	(1+(?___ftneg)),w
  1406  065B  00A7               	movwf	1+(?___ftadd)+03h
  1407  065C  087A               	movf	(2+(?___ftneg)),w
  1408  065D  00A8               	movwf	2+(?___ftadd)+03h
  1409  065E  120A  118A  26BA   	fcall	___ftadd
              120A  118A         
  1410  0663  1283               	bcf	status, 5	;RP0=0, select bank0
  1411  0664  1303               	bcf	status, 6	;RP1=0, select bank0
  1412  0665  0823               	movf	(0+(?___ftadd)),w
  1413  0666  00D5               	movwf	(temperature@f1)
  1414  0667  0824               	movf	(1+(?___ftadd)),w
  1415  0668  00D6               	movwf	(temperature@f1+1)
  1416  0669  0825               	movf	(2+(?___ftadd)),w
  1417  066A  00D7               	movwf	(temperature@f1+2)
  1418                           	line	108
  1419                           ;ADC with LM35 and Motor.c: 108: x4 = f1*10;
  1420  066B  0855               	movf	(temperature@f1),w
  1421  066C  00AD               	movwf	0+(?___ftmul)+03h
  1422  066D  0856               	movf	(temperature@f1+1),w
  1423  066E  00AE               	movwf	1+(?___ftmul)+03h
  1424  066F  0857               	movf	(temperature@f1+2),w
  1425  0670  00AF               	movwf	2+(?___ftmul)+03h
  1426  0671  3000               	movlw	0x0
  1427  0672  00AA               	movwf	(?___ftmul)
  1428  0673  3020               	movlw	0x20
  1429  0674  00AB               	movwf	(?___ftmul+1)
  1430  0675  3041               	movlw	0x41
  1431  0676  00AC               	movwf	(?___ftmul+2)
  1432  0677  120A  118A  24B1   	fcall	___ftmul
              120A  118A         
  1433  067C  1283               	bcf	status, 5	;RP0=0, select bank0
  1434  067D  1303               	bcf	status, 6	;RP1=0, select bank0
  1435  067E  082A               	movf	(0+(?___ftmul)),w
  1436  067F  00F8               	movwf	(?___fttol)
  1437  0680  082B               	movf	(1+(?___ftmul)),w
  1438  0681  00F9               	movwf	(?___fttol+1)
  1439  0682  082C               	movf	(2+(?___ftmul)),w
  1440  0683  00FA               	movwf	(?___fttol+2)
  1441  0684  120A  118A  21B3   	fcall	___fttol
              120A  118A         
  1442  0689  0879               	movf	1+(((0+(?___fttol)))),w
  1443  068A  1283               	bcf	status, 5	;RP0=0, select bank0
  1444  068B  1303               	bcf	status, 6	;RP1=0, select bank0
  1445  068C  01C4               	clrf	(temperature@x4+1)
  1446  068D  07C4               	addwf	(temperature@x4+1)
  1447  068E  0878               	movf	0+(((0+(?___fttol)))),w
  1448  068F  01C3               	clrf	(temperature@x4)
  1449  0690  07C3               	addwf	(temperature@x4)
  1450                           
  1451                           	line	109
  1452                           ;ADC with LM35 and Motor.c: 109: lcd_data(x3+0x30);
  1453  0691  0841               	movf	(temperature@x3),w
  1454  0692  3E30               	addlw	030h
  1455  0693  120A  158A  262E   	fcall	_lcd_data
              120A  118A         
  1456                           	line	110
  1457                           ;ADC with LM35 and Motor.c: 110: lcd_data(x2+0x30);
  1458  0698  1283               	bcf	status, 5	;RP0=0, select bank0
  1459  0699  1303               	bcf	status, 6	;RP1=0, select bank0
  1460  069A  083F               	movf	(temperature@x2),w
  1461  069B  3E30               	addlw	030h
  1462  069C  120A  158A  262E   	fcall	_lcd_data
              120A  118A         
  1463                           	line	111
  1464                           ;ADC with LM35 and Motor.c: 111: lcd_data(x1+0x30);
  1465  06A1  1283               	bcf	status, 5	;RP0=0, select bank0
  1466  06A2  1303               	bcf	status, 6	;RP1=0, select bank0
  1467  06A3  083D               	movf	(temperature@x1),w
  1468  06A4  3E30               	addlw	030h
  1469  06A5  120A  158A  262E   	fcall	_lcd_data
              120A  118A         
  1470                           	line	112
  1471                           ;ADC with LM35 and Motor.c: 112: lcd_data(0x2e);
  1472  06AA  302E               	movlw	(02Eh)
  1473  06AB  120A  158A  262E   	fcall	_lcd_data
              120A  118A         
  1474                           	line	113
  1475                           ;ADC with LM35 and Motor.c: 113: lcd_data(x4+0x30);
  1476  06B0  1283               	bcf	status, 5	;RP0=0, select bank0
  1477  06B1  1303               	bcf	status, 6	;RP1=0, select bank0
  1478  06B2  0843               	movf	(temperature@x4),w
  1479  06B3  3E30               	addlw	030h
  1480  06B4  120A  158A  262E   	fcall	_lcd_data
              120A  118A         
  1481                           	line	114
  1482                           	
  1483  06B9                     l739:	
  1484  06B9  0008               	return
  1485                           	opt stack 0
  1486                           GLOBAL	__end_of_temperature
  1487  06BA                     	__end_of_temperature:
  1488 ;; =============== function _temperature ends ============
  1489                           
  1490                           	signat	_temperature,4216
  1491                           	global	_adc_hex
  1492                           psect	text426,local,class=CODE,delta=2
  1493                           global __ptext426
  1494  0259                     __ptext426:
  1495                           
  1496 ;; *************** function _adc_hex *****************
  1497 ;; Defined at:
  1498 ;;		line 83 in file "C:\Users\Mugi\Desktop\Mugi storage\Program files\Mp Lab Programs\ADC with LM35 and Motor\ADC with L
       M35 and Motor.c"
  1499 ;; Parameters:    Size  Location     Type
  1500 ;;  val             2    8[COMMON] unsigned int 
  1501 ;; Auto vars:     Size  Location     Type
  1502 ;;		None
  1503 ;; Return value:  Size  Location     Type
  1504 ;;		None               void
  1505 ;; Registers used:
  1506 ;;		wreg, status,2, status,0, pclath, cstack
  1507 ;; Tracked objects:
  1508 ;;		On entry : 0/0
  1509 ;;		On exit  : 0/0
  1510 ;;		Unchanged: 0/0
  1511 ;; Data sizes:     COMMON   BANK0   BANK1   BANK3   BANK2
  1512 ;;      Params:         2       0       0       0       0
  1513 ;;      Locals:         0       0       0       0       0
  1514 ;;      Temps:          0       0       0       0       0
  1515 ;;      Totals:         2       0       0       0       0
  1516 ;;Total ram usage:        2 bytes
  1517 ;; Hardware stack levels used:    1
  1518 ;; Hardware stack levels required when called:    1
  1519 ;; This function calls:
  1520 ;;		___lwdiv
  1521 ;;		___lwmod
  1522 ;;		_lcd_data
  1523 ;; This function is called by:
  1524 ;;		_main
  1525 ;; This function uses a non-reentrant model
  1526 ;;
  1527                           psect	text426
  1528                           	file	"C:\Users\Mugi\Desktop\Mugi storage\Program files\Mp Lab Programs\ADC with LM35 an
                                 d Motor\ADC with LM35 and Motor.c"
  1529                           	line	83
  1530                           	global	__size_of_adc_hex
  1531  00AD                     	__size_of_adc_hex	equ	__end_of_adc_hex-_adc_hex
  1532                           	
  1533  0259                     _adc_hex:	
  1534                           	opt	stack 6
  1535                           ; Regs used in _adc_hex: [wreg+status,2+status,0+pclath+cstack]
  1536                           	line	84
  1537                           	
  1538  0259                     l3719:	
  1539                           ;ADC with LM35 and Motor.c: 84: h=val/1000;
  1540  0259  30E8               	movlw	low(03E8h)
  1541  025A  00F0               	movwf	(?___lwdiv)
  1542  025B  3003               	movlw	high(03E8h)
  1543  025C  00F1               	movwf	((?___lwdiv))+1
  1544  025D  0879               	movf	(adc_hex@val+1),w
  1545  025E  01F3               	clrf	1+(?___lwdiv)+02h
  1546  025F  07F3               	addwf	1+(?___lwdiv)+02h
  1547  0260  0878               	movf	(adc_hex@val),w
  1548  0261  01F2               	clrf	0+(?___lwdiv)+02h
  1549  0262  07F2               	addwf	0+(?___lwdiv)+02h
  1550                           
  1551  0263  120A  158A  26E0   	fcall	___lwdiv
              120A  118A         
  1552  0268  0871               	movf	(1+(?___lwdiv)),w
  1553  0269  1283               	bcf	status, 5	;RP0=0, select bank0
  1554  026A  1303               	bcf	status, 6	;RP1=0, select bank0
  1555  026B  01DD               	clrf	(_h+1)
  1556  026C  07DD               	addwf	(_h+1)
  1557  026D  0870               	movf	(0+(?___lwdiv)),w
  1558  026E  01DC               	clrf	(_h)
  1559  026F  07DC               	addwf	(_h)
  1560                           
  1561                           	line	85
  1562                           ;ADC with LM35 and Motor.c: 85: hr=val%1000;
  1563  0270  30E8               	movlw	low(03E8h)
  1564  0271  00F0               	movwf	(?___lwmod)
  1565  0272  3003               	movlw	high(03E8h)
  1566  0273  00F1               	movwf	((?___lwmod))+1
  1567  0274  0879               	movf	(adc_hex@val+1),w
  1568  0275  01F3               	clrf	1+(?___lwmod)+02h
  1569  0276  07F3               	addwf	1+(?___lwmod)+02h
  1570  0277  0878               	movf	(adc_hex@val),w
  1571  0278  01F2               	clrf	0+(?___lwmod)+02h
  1572  0279  07F2               	addwf	0+(?___lwmod)+02h
  1573                           
  1574  027A  120A  158A  269C   	fcall	___lwmod
              120A  118A         
  1575  027F  0871               	movf	(1+(?___lwmod)),w
  1576  0280  1283               	bcf	status, 5	;RP0=0, select bank0
  1577  0281  1303               	bcf	status, 6	;RP1=0, select bank0
  1578  0282  01DF               	clrf	(_hr+1)
  1579  0283  07DF               	addwf	(_hr+1)
  1580  0284  0870               	movf	(0+(?___lwmod)),w
  1581  0285  01DE               	clrf	(_hr)
  1582  0286  07DE               	addwf	(_hr)
  1583                           
  1584                           	line	86
  1585                           ;ADC with LM35 and Motor.c: 86: t=hr/100;
  1586  0287  3064               	movlw	low(064h)
  1587  0288  00F0               	movwf	(?___lwdiv)
  1588  0289  3000               	movlw	high(064h)
  1589  028A  00F1               	movwf	((?___lwdiv))+1
  1590  028B  085F               	movf	(_hr+1),w
  1591  028C  01F3               	clrf	1+(?___lwdiv)+02h
  1592  028D  07F3               	addwf	1+(?___lwdiv)+02h
  1593  028E  085E               	movf	(_hr),w
  1594  028F  01F2               	clrf	0+(?___lwdiv)+02h
  1595  0290  07F2               	addwf	0+(?___lwdiv)+02h
  1596                           
  1597  0291  120A  158A  26E0   	fcall	___lwdiv
              120A  118A         
  1598  0296  0871               	movf	(1+(?___lwdiv)),w
  1599  0297  1283               	bcf	status, 5	;RP0=0, select bank0
  1600  0298  1303               	bcf	status, 6	;RP1=0, select bank0
  1601  0299  01E3               	clrf	(_t+1)
  1602  029A  07E3               	addwf	(_t+1)
  1603  029B  0870               	movf	(0+(?___lwdiv)),w
  1604  029C  01E2               	clrf	(_t)
  1605  029D  07E2               	addwf	(_t)
  1606                           
  1607                           	line	87
  1608                           ;ADC with LM35 and Motor.c: 87: o=hr%100;
  1609  029E  3064               	movlw	low(064h)
  1610  029F  00F0               	movwf	(?___lwmod)
  1611  02A0  3000               	movlw	high(064h)
  1612  02A1  00F1               	movwf	((?___lwmod))+1
  1613  02A2  085F               	movf	(_hr+1),w
  1614  02A3  01F3               	clrf	1+(?___lwmod)+02h
  1615  02A4  07F3               	addwf	1+(?___lwmod)+02h
  1616  02A5  085E               	movf	(_hr),w
  1617  02A6  01F2               	clrf	0+(?___lwmod)+02h
  1618  02A7  07F2               	addwf	0+(?___lwmod)+02h
  1619                           
  1620  02A8  120A  158A  269C   	fcall	___lwmod
              120A  118A         
  1621  02AD  0871               	movf	(1+(?___lwmod)),w
  1622  02AE  1283               	bcf	status, 5	;RP0=0, select bank0
  1623  02AF  1303               	bcf	status, 6	;RP1=0, select bank0
  1624  02B0  01E1               	clrf	(_o+1)
  1625  02B1  07E1               	addwf	(_o+1)
  1626  02B2  0870               	movf	(0+(?___lwmod)),w
  1627  02B3  01E0               	clrf	(_o)
  1628  02B4  07E0               	addwf	(_o)
  1629                           
  1630                           	line	88
  1631                           ;ADC with LM35 and Motor.c: 88: th=o/10;
  1632  02B5  300A               	movlw	low(0Ah)
  1633  02B6  00F0               	movwf	(?___lwdiv)
  1634  02B7  3000               	movlw	high(0Ah)
  1635  02B8  00F1               	movwf	((?___lwdiv))+1
  1636  02B9  0861               	movf	(_o+1),w
  1637  02BA  01F3               	clrf	1+(?___lwdiv)+02h
  1638  02BB  07F3               	addwf	1+(?___lwdiv)+02h
  1639  02BC  0860               	movf	(_o),w
  1640  02BD  01F2               	clrf	0+(?___lwdiv)+02h
  1641  02BE  07F2               	addwf	0+(?___lwdiv)+02h
  1642                           
  1643  02BF  120A  158A  26E0   	fcall	___lwdiv
              120A  118A         
  1644  02C4  0871               	movf	(1+(?___lwdiv)),w
  1645  02C5  1283               	bcf	status, 5	;RP0=0, select bank0
  1646  02C6  1303               	bcf	status, 6	;RP1=0, select bank0
  1647  02C7  01E5               	clrf	(_th+1)
  1648  02C8  07E5               	addwf	(_th+1)
  1649  02C9  0870               	movf	(0+(?___lwdiv)),w
  1650  02CA  01E4               	clrf	(_th)
  1651  02CB  07E4               	addwf	(_th)
  1652                           
  1653                           	line	89
  1654                           ;ADC with LM35 and Motor.c: 89: thr=o%10;
  1655  02CC  300A               	movlw	low(0Ah)
  1656  02CD  00F0               	movwf	(?___lwmod)
  1657  02CE  3000               	movlw	high(0Ah)
  1658  02CF  00F1               	movwf	((?___lwmod))+1
  1659  02D0  0861               	movf	(_o+1),w
  1660  02D1  01F3               	clrf	1+(?___lwmod)+02h
  1661  02D2  07F3               	addwf	1+(?___lwmod)+02h
  1662  02D3  0860               	movf	(_o),w
  1663  02D4  01F2               	clrf	0+(?___lwmod)+02h
  1664  02D5  07F2               	addwf	0+(?___lwmod)+02h
  1665                           
  1666  02D6  120A  158A  269C   	fcall	___lwmod
              120A  118A         
  1667  02DB  0871               	movf	(1+(?___lwmod)),w
  1668  02DC  1283               	bcf	status, 5	;RP0=0, select bank0
  1669  02DD  1303               	bcf	status, 6	;RP1=0, select bank0
  1670  02DE  01E7               	clrf	(_thr+1)
  1671  02DF  07E7               	addwf	(_thr+1)
  1672  02E0  0870               	movf	(0+(?___lwmod)),w
  1673  02E1  01E6               	clrf	(_thr)
  1674  02E2  07E6               	addwf	(_thr)
  1675                           
  1676                           	line	90
  1677                           ;ADC with LM35 and Motor.c: 90: lcd_data(h+0x30);
  1678  02E3  085C               	movf	(_h),w
  1679  02E4  3E30               	addlw	030h
  1680  02E5  120A  158A  262E   	fcall	_lcd_data
              120A  118A         
  1681                           	line	91
  1682                           ;ADC with LM35 and Motor.c: 91: lcd_data(t+0x30);
  1683  02EA  1283               	bcf	status, 5	;RP0=0, select bank0
  1684  02EB  1303               	bcf	status, 6	;RP1=0, select bank0
  1685  02EC  0862               	movf	(_t),w
  1686  02ED  3E30               	addlw	030h
  1687  02EE  120A  158A  262E   	fcall	_lcd_data
              120A  118A         
  1688                           	line	92
  1689                           ;ADC with LM35 and Motor.c: 92: lcd_data(th+0x30);
  1690  02F3  1283               	bcf	status, 5	;RP0=0, select bank0
  1691  02F4  1303               	bcf	status, 6	;RP1=0, select bank0
  1692  02F5  0864               	movf	(_th),w
  1693  02F6  3E30               	addlw	030h
  1694  02F7  120A  158A  262E   	fcall	_lcd_data
              120A  118A         
  1695                           	line	93
  1696                           ;ADC with LM35 and Motor.c: 93: lcd_data(thr+0x30);
  1697  02FC  1283               	bcf	status, 5	;RP0=0, select bank0
  1698  02FD  1303               	bcf	status, 6	;RP1=0, select bank0
  1699  02FE  0866               	movf	(_thr),w
  1700  02FF  3E30               	addlw	030h
  1701  0300  120A  158A  262E   	fcall	_lcd_data
              120A  118A         
  1702                           	line	94
  1703                           	
  1704  0305                     l734:	
  1705  0305  0008               	return
  1706                           	opt stack 0
  1707                           GLOBAL	__end_of_adc_hex
  1708  0306                     	__end_of_adc_hex:
  1709 ;; =============== function _adc_hex ends ============
  1710                           
  1711                           	signat	_adc_hex,4216
  1712                           	global	_adc_value
  1713                           psect	text427,local,class=CODE,delta=2
  1714                           global __ptext427
  1715  012C                     __ptext427:
  1716                           
  1717 ;; *************** function _adc_value *****************
  1718 ;; Defined at:
  1719 ;;		line 69 in file "C:\Users\Mugi\Desktop\Mugi storage\Program files\Mp Lab Programs\ADC with LM35 and Motor\ADC with L
       M35 and Motor.c"
  1720 ;; Parameters:    Size  Location     Type
  1721 ;;		None
  1722 ;; Auto vars:     Size  Location     Type
  1723 ;;		None
  1724 ;; Return value:  Size  Location     Type
  1725 ;;		None               void
  1726 ;; Registers used:
  1727 ;;		wreg, status,2, status,0, pclath, cstack
  1728 ;; Tracked objects:
  1729 ;;		On entry : 0/0
  1730 ;;		On exit  : 0/0
  1731 ;;		Unchanged: 0/0
  1732 ;; Data sizes:     COMMON   BANK0   BANK1   BANK3   BANK2
  1733 ;;      Params:         0       0       0       0       0
  1734 ;;      Locals:         0       0       0       0       0
  1735 ;;      Temps:          2       0       0       0       0
  1736 ;;      Totals:         2       0       0       0       0
  1737 ;;Total ram usage:        2 bytes
  1738 ;; Hardware stack levels used:    1
  1739 ;; Hardware stack levels required when called:    2
  1740 ;; This function calls:
  1741 ;;		___lwtoft
  1742 ;;		___ftmul
  1743 ;;		___ftdiv
  1744 ;; This function is called by:
  1745 ;;		_main
  1746 ;; This function uses a non-reentrant model
  1747 ;;
  1748                           psect	text427
  1749                           	file	"C:\Users\Mugi\Desktop\Mugi storage\Program files\Mp Lab Programs\ADC with LM35 an
                                 d Motor\ADC with LM35 and Motor.c"
  1750                           	line	69
  1751                           	global	__size_of_adc_value
  1752  0087                     	__size_of_adc_value	equ	__end_of_adc_value-_adc_value
  1753                           	
  1754  012C                     _adc_value:	
  1755                           	opt	stack 5
  1756                           ; Regs used in _adc_value: [wreg+status,2+status,0+pclath+cstack]
  1757                           	line	70
  1758                           	
  1759  012C                     l3709:	
  1760                           ;ADC with LM35 and Motor.c: 70: ADCON0 = 0xC5;
  1761  012C  30C5               	movlw	(0C5h)
  1762  012D  1283               	bcf	status, 5	;RP0=0, select bank0
  1763  012E  1303               	bcf	status, 6	;RP1=0, select bank0
  1764  012F  009F               	movwf	(31)	;volatile
  1765                           	line	72
  1766                           ;ADC with LM35 and Motor.c: 72: _delay((unsigned long)((10)*(20e6/4000.0)));
  1767                           	opt asmopt_off
  1768  0130  3041               movlw	65
  1769  0131  00FD               movwf	((??_adc_value+0)+0+1),f
  1770  0132  30EE               	movlw	238
  1771  0133  00FC               movwf	((??_adc_value+0)+0),f
  1772  0134                     u3477:
  1773  0134  0BFC               	decfsz	((??_adc_value+0)+0),f
  1774  0135  2934               	goto	u3477
  1775  0136  0BFD               	decfsz	((??_adc_value+0)+0+1),f
  1776  0137  2934               	goto	u3477
  1777  0138  0064               	clrwdt
  1778                           opt asmopt_on
  1779                           
  1780                           	line	73
  1781                           ;ADC with LM35 and Motor.c: 73: a = ADRESL;
  1782  0139  1683               	bsf	status, 5	;RP0=1, select bank1
  1783  013A  1303               	bcf	status, 6	;RP1=0, select bank1
  1784  013B  081E               	movf	(158)^080h,w	;volatile
  1785  013C  00FC               	movwf	(??_adc_value+0)+0
  1786  013D  01FD               	clrf	(??_adc_value+0)+0+1
  1787  013E  087C               	movf	0+(??_adc_value+0)+0,w
  1788  013F  1283               	bcf	status, 5	;RP0=0, select bank0
  1789  0140  1303               	bcf	status, 6	;RP1=0, select bank0
  1790  0141  00D8               	movwf	(_a)
  1791  0142  087D               	movf	1+(??_adc_value+0)+0,w
  1792  0143  00D9               	movwf	(_a+1)
  1793                           	line	74
  1794                           ;ADC with LM35 and Motor.c: 74: b = ADRESH;
  1795  0144  081E               	movf	(30),w	;volatile
  1796  0145  00FC               	movwf	(??_adc_value+0)+0
  1797  0146  01FD               	clrf	(??_adc_value+0)+0+1
  1798  0147  087C               	movf	0+(??_adc_value+0)+0,w
  1799  0148  00DA               	movwf	(_b)
  1800  0149  087D               	movf	1+(??_adc_value+0)+0,w
  1801  014A  00DB               	movwf	(_b+1)
  1802                           	line	75
  1803                           ;ADC with LM35 and Motor.c: 75: b = b*256;
  1804  014B  085A               	movf	(_b),w
  1805  014C  00FD               	movwf	(??_adc_value+0)+0+1
  1806  014D  01FC               	clrf	(??_adc_value+0)+0
  1807  014E  087C               	movf	0+(??_adc_value+0)+0,w
  1808  014F  00DA               	movwf	(_b)
  1809  0150  087D               	movf	1+(??_adc_value+0)+0,w
  1810  0151  00DB               	movwf	(_b+1)
  1811                           	line	76
  1812                           	
  1813  0152                     l3711:	
  1814                           ;ADC with LM35 and Motor.c: 76: val = (b+a);
  1815  0152  0858               	movf	(_a),w
  1816  0153  075A               	addwf	(_b),w
  1817  0154  00E8               	movwf	(_val)
  1818  0155  0859               	movf	(_a+1),w
  1819  0156  1803               	skipnc
  1820  0157  0A59               	incf	(_a+1),w
  1821  0158  075B               	addwf	(_b+1),w
  1822  0159  00E9               	movwf	1+(_val)
  1823                           	line	77
  1824                           	
  1825  015A                     l3713:	
  1826                           ;ADC with LM35 and Motor.c: 77: f = val;
  1827  015A  0869               	movf	(_val+1),w
  1828  015B  01F9               	clrf	(?___lwtoft+1)
  1829  015C  07F9               	addwf	(?___lwtoft+1)
  1830  015D  0868               	movf	(_val),w
  1831  015E  01F8               	clrf	(?___lwtoft)
  1832  015F  07F8               	addwf	(?___lwtoft)
  1833                           
  1834  0160  120A  158A  2642   	fcall	___lwtoft
              120A  118A         
  1835  0165  0878               	movf	(0+(?___lwtoft)),w
  1836  0166  1283               	bcf	status, 5	;RP0=0, select bank0
  1837  0167  1303               	bcf	status, 6	;RP1=0, select bank0
  1838  0168  00CC               	movwf	(_f)
  1839  0169  0879               	movf	(1+(?___lwtoft)),w
  1840  016A  00CD               	movwf	(_f+1)
  1841  016B  087A               	movf	(2+(?___lwtoft)),w
  1842  016C  00CE               	movwf	(_f+2)
  1843                           	line	78
  1844                           	
  1845  016D                     l3715:	
  1846                           ;ADC with LM35 and Motor.c: 78: volt = (f*5) / 1023;
  1847  016D  30C0               	movlw	0xc0
  1848  016E  00BA               	movwf	(?___ftdiv)
  1849  016F  307F               	movlw	0x7f
  1850  0170  00BB               	movwf	(?___ftdiv+1)
  1851  0171  3044               	movlw	0x44
  1852  0172  00BC               	movwf	(?___ftdiv+2)
  1853  0173  3000               	movlw	0x0
  1854  0174  00AA               	movwf	(?___ftmul)
  1855  0175  30A0               	movlw	0xa0
  1856  0176  00AB               	movwf	(?___ftmul+1)
  1857  0177  3040               	movlw	0x40
  1858  0178  00AC               	movwf	(?___ftmul+2)
  1859  0179  084C               	movf	(_f),w
  1860  017A  00AD               	movwf	0+(?___ftmul)+03h
  1861  017B  084D               	movf	(_f+1),w
  1862  017C  00AE               	movwf	1+(?___ftmul)+03h
  1863  017D  084E               	movf	(_f+2),w
  1864  017E  00AF               	movwf	2+(?___ftmul)+03h
  1865  017F  120A  118A  24B1   	fcall	___ftmul
              120A  118A         
  1866  0184  1283               	bcf	status, 5	;RP0=0, select bank0
  1867  0185  1303               	bcf	status, 6	;RP1=0, select bank0
  1868  0186  082A               	movf	(0+(?___ftmul)),w
  1869  0187  00BD               	movwf	0+(?___ftdiv)+03h
  1870  0188  082B               	movf	(1+(?___ftmul)),w
  1871  0189  00BE               	movwf	1+(?___ftdiv)+03h
  1872  018A  082C               	movf	(2+(?___ftmul)),w
  1873  018B  00BF               	movwf	2+(?___ftdiv)+03h
  1874  018C  120A  118A  2306   	fcall	___ftdiv
              120A  118A         
  1875  0191  1283               	bcf	status, 5	;RP0=0, select bank0
  1876  0192  1303               	bcf	status, 6	;RP1=0, select bank0
  1877  0193  083A               	movf	(0+(?___ftdiv)),w
  1878  0194  00D2               	movwf	(_volt)
  1879  0195  083B               	movf	(1+(?___ftdiv)),w
  1880  0196  00D3               	movwf	(_volt+1)
  1881  0197  083C               	movf	(2+(?___ftdiv)),w
  1882  0198  00D4               	movwf	(_volt+2)
  1883                           	line	79
  1884                           	
  1885  0199                     l3717:	
  1886                           ;ADC with LM35 and Motor.c: 79: tempr = volt * 100;
  1887  0199  3000               	movlw	0x0
  1888  019A  00AA               	movwf	(?___ftmul)
  1889  019B  30C8               	movlw	0xc8
  1890  019C  00AB               	movwf	(?___ftmul+1)
  1891  019D  3042               	movlw	0x42
  1892  019E  00AC               	movwf	(?___ftmul+2)
  1893  019F  0852               	movf	(_volt),w
  1894  01A0  00AD               	movwf	0+(?___ftmul)+03h
  1895  01A1  0853               	movf	(_volt+1),w
  1896  01A2  00AE               	movwf	1+(?___ftmul)+03h
  1897  01A3  0854               	movf	(_volt+2),w
  1898  01A4  00AF               	movwf	2+(?___ftmul)+03h
  1899  01A5  120A  118A  24B1   	fcall	___ftmul
              120A  118A         
  1900  01AA  1283               	bcf	status, 5	;RP0=0, select bank0
  1901  01AB  1303               	bcf	status, 6	;RP1=0, select bank0
  1902  01AC  082A               	movf	(0+(?___ftmul)),w
  1903  01AD  00CF               	movwf	(_tempr)
  1904  01AE  082B               	movf	(1+(?___ftmul)),w
  1905  01AF  00D0               	movwf	(_tempr+1)
  1906  01B0  082C               	movf	(2+(?___ftmul)),w
  1907  01B1  00D1               	movwf	(_tempr+2)
  1908                           	line	80
  1909                           	
  1910  01B2                     l731:	
  1911  01B2  0008               	return
  1912                           	opt stack 0
  1913                           GLOBAL	__end_of_adc_value
  1914  01B3                     	__end_of_adc_value:
  1915 ;; =============== function _adc_value ends ============
  1916                           
  1917                           	signat	_adc_value,88
  1918                           	global	_lcd_send
  1919                           psect	text428,local,class=CODE,delta=2
  1920                           global __ptext428
  1921  0013                     __ptext428:
  1922                           
  1923 ;; *************** function _lcd_send *****************
  1924 ;; Defined at:
  1925 ;;		line 55 in file "C:\Users\Mugi\Desktop\Mugi storage\Program files\Mp Lab Programs\ADC with LM35 and Motor\ADC with L
       M35 and Motor.c"
  1926 ;; Parameters:    Size  Location     Type
  1927 ;;  word            1    wreg     PTR const unsigned char 
  1928 ;;		 -> STR_3(17), STR_2(19), STR_1(17), 
  1929 ;; Auto vars:     Size  Location     Type
  1930 ;;  word            1    5[COMMON] PTR const unsigned char 
  1931 ;;		 -> STR_3(17), STR_2(19), STR_1(17), 
  1932 ;; Return value:  Size  Location     Type
  1933 ;;		None               void
  1934 ;; Registers used:
  1935 ;;		wreg, fsr0l, fsr0h, status,2, status,0, pclath, cstack
  1936 ;; Tracked objects:
  1937 ;;		On entry : 0/0
  1938 ;;		On exit  : 0/0
  1939 ;;		Unchanged: 0/0
  1940 ;; Data sizes:     COMMON   BANK0   BANK1   BANK3   BANK2
  1941 ;;      Params:         0       0       0       0       0
  1942 ;;      Locals:         1       0       0       0       0
  1943 ;;      Temps:          2       0       0       0       0
  1944 ;;      Totals:         3       0       0       0       0
  1945 ;;Total ram usage:        3 bytes
  1946 ;; Hardware stack levels used:    1
  1947 ;; Hardware stack levels required when called:    1
  1948 ;; This function calls:
  1949 ;;		_lcd_data
  1950 ;; This function is called by:
  1951 ;;		_main
  1952 ;; This function uses a non-reentrant model
  1953 ;;
  1954                           psect	text428
  1955                           	file	"C:\Users\Mugi\Desktop\Mugi storage\Program files\Mp Lab Programs\ADC with LM35 an
                                 d Motor\ADC with LM35 and Motor.c"
  1956                           	line	55
  1957                           	global	__size_of_lcd_send
  1958  002A                     	__size_of_lcd_send	equ	__end_of_lcd_send-_lcd_send
  1959                           	
  1960  0013                     _lcd_send:	
  1961                           	opt	stack 6
  1962                           ; Regs used in _lcd_send: [wreg-fsr0h+status,2+status,0+pclath+cstack]
  1963                           ;lcd_send@word stored from wreg
  1964  0013  00F5               	movwf	(lcd_send@word)
  1965                           	line	56
  1966                           	
  1967  0014                     l3699:	
  1968                           ;ADC with LM35 and Motor.c: 56: while(*word)
  1969  0014  282F               	goto	l3707
  1970                           	
  1971  0015                     l723:	
  1972                           	line	58
  1973                           	
  1974  0015                     l3701:	
  1975                           ;ADC with LM35 and Motor.c: 57: {
  1976                           ;ADC with LM35 and Motor.c: 58: lcd_data(*word++);
  1977  0015  0875               	movf	(lcd_send@word),w
  1978  0016  0084               	movwf	fsr0
  1979  0017  120A  158A  2000   	fcall	stringdir
              120A  118A         
  1980  001C  120A  158A  262E   	fcall	_lcd_data
              120A  118A         
  1981                           	
  1982  0021                     l3703:	
  1983  0021  3001               	movlw	(01h)
  1984  0022  00F3               	movwf	(??_lcd_send+0)+0
  1985  0023  0873               	movf	(??_lcd_send+0)+0,w
  1986  0024  07F5               	addwf	(lcd_send@word),f
  1987                           	line	59
  1988                           	
  1989  0025                     l3705:	
  1990                           ;ADC with LM35 and Motor.c: 59: _delay((unsigned long)((10)*(20e6/4000.0)));
  1991                           	opt asmopt_off
  1992  0025  3041               movlw	65
  1993  0026  00F4               movwf	((??_lcd_send+0)+0+1),f
  1994  0027  30EE               	movlw	238
  1995  0028  00F3               movwf	((??_lcd_send+0)+0),f
  1996  0029                     u3487:
  1997  0029  0BF3               	decfsz	((??_lcd_send+0)+0),f
  1998  002A  2829               	goto	u3487
  1999  002B  0BF4               	decfsz	((??_lcd_send+0)+0+1),f
  2000  002C  2829               	goto	u3487
  2001  002D  0064               	clrwdt
  2002                           opt asmopt_on
  2003                           
  2004  002E  282F               	goto	l3707
  2005                           	line	60
  2006                           	
  2007  002F                     l722:	
  2008                           	line	56
  2009                           	
  2010  002F                     l3707:	
  2011  002F  0875               	movf	(lcd_send@word),w
  2012  0030  0084               	movwf	fsr0
  2013  0031  120A  158A  2000   	fcall	stringdir
              120A  118A         
  2014  0036  3800               	iorlw	0
  2015  0037  1D03               	skipz
  2016  0038  283A               	goto	u3411
  2017  0039  283B               	goto	u3410
  2018  003A                     u3411:
  2019  003A  2815               	goto	l3701
  2020  003B                     u3410:
  2021  003B  283C               	goto	l725
  2022                           	
  2023  003C                     l724:	
  2024                           	line	61
  2025                           	
  2026  003C                     l725:	
  2027  003C  0008               	return
  2028                           	opt stack 0
  2029                           GLOBAL	__end_of_lcd_send
  2030  003D                     	__end_of_lcd_send:
  2031 ;; =============== function _lcd_send ends ============
  2032                           
  2033                           	signat	_lcd_send,4216
  2034                           	global	_lcd_init
  2035                           psect	text429,local,class=CODE,delta=2
  2036                           global __ptext429
  2037  0E59                     __ptext429:
  2038                           
  2039 ;; *************** function _lcd_init *****************
  2040 ;; Defined at:
  2041 ;;		line 29 in file "C:\Users\Mugi\Desktop\Mugi storage\Program files\Mp Lab Programs\ADC with LM35 and Motor\ADC with L
       M35 and Motor.c"
  2042 ;; Parameters:    Size  Location     Type
  2043 ;;		None
  2044 ;; Auto vars:     Size  Location     Type
  2045 ;;		None
  2046 ;; Return value:  Size  Location     Type
  2047 ;;		None               void
  2048 ;; Registers used:
  2049 ;;		wreg, status,2, status,0, pclath, cstack
  2050 ;; Tracked objects:
  2051 ;;		On entry : 0/0
  2052 ;;		On exit  : 0/0
  2053 ;;		Unchanged: 0/0
  2054 ;; Data sizes:     COMMON   BANK0   BANK1   BANK3   BANK2
  2055 ;;      Params:         0       0       0       0       0
  2056 ;;      Locals:         0       0       0       0       0
  2057 ;;      Temps:          0       0       0       0       0
  2058 ;;      Totals:         0       0       0       0       0
  2059 ;;Total ram usage:        0 bytes
  2060 ;; Hardware stack levels used:    1
  2061 ;; Hardware stack levels required when called:    1
  2062 ;; This function calls:
  2063 ;;		_command
  2064 ;; This function is called by:
  2065 ;;		_main
  2066 ;; This function uses a non-reentrant model
  2067 ;;
  2068                           psect	text429
  2069                           	file	"C:\Users\Mugi\Desktop\Mugi storage\Program files\Mp Lab Programs\ADC with LM35 an
                                 d Motor\ADC with LM35 and Motor.c"
  2070                           	line	29
  2071                           	global	__size_of_lcd_init
  2072  0019                     	__size_of_lcd_init	equ	__end_of_lcd_init-_lcd_init
  2073                           	
  2074  0E59                     _lcd_init:	
  2075                           	opt	stack 6
  2076                           ; Regs used in _lcd_init: [wreg+status,2+status,0+pclath+cstack]
  2077                           	line	30
  2078                           	
  2079  0E59                     l3697:	
  2080                           ;ADC with LM35 and Motor.c: 30: command(0x01);
  2081  0E59  3001               	movlw	(01h)
  2082  0E5A  120A  158A  261A   	fcall	_command
              120A  158A         
  2083                           	line	31
  2084                           ;ADC with LM35 and Motor.c: 31: command(0x06);
  2085  0E5F  3006               	movlw	(06h)
  2086  0E60  120A  158A  261A   	fcall	_command
              120A  158A         
  2087                           	line	32
  2088                           ;ADC with LM35 and Motor.c: 32: command(0x0C);
  2089  0E65  300C               	movlw	(0Ch)
  2090  0E66  120A  158A  261A   	fcall	_command
              120A  158A         
  2091                           	line	33
  2092                           ;ADC with LM35 and Motor.c: 33: command(0x38);
  2093  0E6B  3038               	movlw	(038h)
  2094  0E6C  120A  158A  261A   	fcall	_command
              120A  158A         
  2095                           	line	34
  2096                           	
  2097  0E71                     l713:	
  2098  0E71  0008               	return
  2099                           	opt stack 0
  2100                           GLOBAL	__end_of_lcd_init
  2101  0E72                     	__end_of_lcd_init:
  2102 ;; =============== function _lcd_init ends ============
  2103                           
  2104                           	signat	_lcd_init,88
  2105                           	global	___lwtoft
  2106                           psect	text430,local,class=CODE,delta=2
  2107                           global __ptext430
  2108  0E42                     __ptext430:
  2109                           
  2110 ;; *************** function ___lwtoft *****************
  2111 ;; Defined at:
  2112 ;;		line 29 in file "C:\Program Files (x86)\HI-TECH Software\PICC\9.82\sources\lwtoft.c"
  2113 ;; Parameters:    Size  Location     Type
  2114 ;;  c               2    8[COMMON] unsigned int 
  2115 ;; Auto vars:     Size  Location     Type
  2116 ;;		None
  2117 ;; Return value:  Size  Location     Type
  2118 ;;                  3    8[COMMON] float 
  2119 ;; Registers used:
  2120 ;;		wreg, status,2, status,0, pclath, cstack
  2121 ;; Tracked objects:
  2122 ;;		On entry : 0/0
  2123 ;;		On exit  : 0/0
  2124 ;;		Unchanged: 0/0
  2125 ;; Data sizes:     COMMON   BANK0   BANK1   BANK3   BANK2
  2126 ;;      Params:         3       0       0       0       0
  2127 ;;      Locals:         0       0       0       0       0
  2128 ;;      Temps:          1       0       0       0       0
  2129 ;;      Totals:         4       0       0       0       0
  2130 ;;Total ram usage:        4 bytes
  2131 ;; Hardware stack levels used:    1
  2132 ;; Hardware stack levels required when called:    1
  2133 ;; This function calls:
  2134 ;;		___ftpack
  2135 ;; This function is called by:
  2136 ;;		_adc_value
  2137 ;; This function uses a non-reentrant model
  2138 ;;
  2139                           psect	text430
  2140                           	file	"C:\Program Files (x86)\HI-TECH Software\PICC\9.82\sources\lwtoft.c"
  2141                           	line	29
  2142                           	global	__size_of___lwtoft
  2143  0017                     	__size_of___lwtoft	equ	__end_of___lwtoft-___lwtoft
  2144                           	
  2145  0E42                     ___lwtoft:	
  2146                           	opt	stack 5
  2147                           ; Regs used in ___lwtoft: [wreg+status,2+status,0+pclath+cstack]
  2148                           	line	30
  2149                           	
  2150  0E42                     l3693:	
  2151  0E42  0878               	movf	(___lwtoft@c),w
  2152  0E43  00F0               	movwf	(?___ftpack)
  2153  0E44  0879               	movf	(___lwtoft@c+1),w
  2154  0E45  00F1               	movwf	(?___ftpack+1)
  2155  0E46  01F2               	clrf	(?___ftpack+2)
  2156  0E47  308E               	movlw	(08Eh)
  2157  0E48  00FB               	movwf	(??___lwtoft+0)+0
  2158  0E49  087B               	movf	(??___lwtoft+0)+0,w
  2159  0E4A  00F3               	movwf	0+(?___ftpack)+03h
  2160  0E4B  01F4               	clrf	0+(?___ftpack)+04h
  2161  0E4C  120A  118A  20B1   	fcall	___ftpack
              120A  158A         
  2162  0E51  0870               	movf	(0+(?___ftpack)),w
  2163  0E52  00F8               	movwf	(?___lwtoft)
  2164  0E53  0871               	movf	(1+(?___ftpack)),w
  2165  0E54  00F9               	movwf	(?___lwtoft+1)
  2166  0E55  0872               	movf	(2+(?___ftpack)),w
  2167  0E56  00FA               	movwf	(?___lwtoft+2)
  2168  0E57  2E58               	goto	l1654
  2169                           	
  2170  0E58                     l3695:	
  2171                           	line	31
  2172                           	
  2173  0E58                     l1654:	
  2174  0E58  0008               	return
  2175                           	opt stack 0
  2176                           GLOBAL	__end_of___lwtoft
  2177  0E59                     	__end_of___lwtoft:
  2178 ;; =============== function ___lwtoft ends ============
  2179                           
  2180                           	signat	___lwtoft,4219
  2181                           	global	___awtoft
  2182                           psect	text431,local,class=CODE,delta=2
  2183                           global __ptext431
  2184  0E72                     __ptext431:
  2185                           
  2186 ;; *************** function ___awtoft *****************
  2187 ;; Defined at:
  2188 ;;		line 33 in file "C:\Program Files (x86)\HI-TECH Software\PICC\9.82\sources\awtoft.c"
  2189 ;; Parameters:    Size  Location     Type
  2190 ;;  c               2   11[COMMON] int 
  2191 ;; Auto vars:     Size  Location     Type
  2192 ;;  sign            1    2[BANK0 ] unsigned char 
  2193 ;; Return value:  Size  Location     Type
  2194 ;;                  3   11[COMMON] float 
  2195 ;; Registers used:
  2196 ;;		wreg, status,2, status,0, pclath, cstack
  2197 ;; Tracked objects:
  2198 ;;		On entry : 0/0
  2199 ;;		On exit  : 0/0
  2200 ;;		Unchanged: 0/0
  2201 ;; Data sizes:     COMMON   BANK0   BANK1   BANK3   BANK2
  2202 ;;      Params:         3       0       0       0       0
  2203 ;;      Locals:         0       1       0       0       0
  2204 ;;      Temps:          0       2       0       0       0
  2205 ;;      Totals:         3       3       0       0       0
  2206 ;;Total ram usage:        6 bytes
  2207 ;; Hardware stack levels used:    1
  2208 ;; Hardware stack levels required when called:    1
  2209 ;; This function calls:
  2210 ;;		___ftpack
  2211 ;; This function is called by:
  2212 ;;		_temperature
  2213 ;; This function uses a non-reentrant model
  2214 ;;
  2215                           psect	text431
  2216                           	file	"C:\Program Files (x86)\HI-TECH Software\PICC\9.82\sources\awtoft.c"
  2217                           	line	33
  2218                           	global	__size_of___awtoft
  2219  002A                     	__size_of___awtoft	equ	__end_of___awtoft-___awtoft
  2220                           	
  2221  0E72                     ___awtoft:	
  2222                           	opt	stack 5
  2223                           ; Regs used in ___awtoft: [wreg+status,2+status,0+pclath+cstack]
  2224                           	line	36
  2225                           	
  2226  0E72                     l3685:	
  2227  0E72  1283               	bcf	status, 5	;RP0=0, select bank0
  2228  0E73  1303               	bcf	status, 6	;RP1=0, select bank0
  2229  0E74  01A2               	clrf	(___awtoft@sign)
  2230                           	line	37
  2231  0E75  1FFC               	btfss	(___awtoft@c+1),7
  2232  0E76  2E78               	goto	u3401
  2233  0E77  2E79               	goto	u3400
  2234  0E78                     u3401:
  2235  0E78  2E82               	goto	l3689
  2236  0E79                     u3400:
  2237                           	line	38
  2238                           	
  2239  0E79                     l3687:	
  2240  0E79  09FB               	comf	(___awtoft@c),f
  2241  0E7A  09FC               	comf	(___awtoft@c+1),f
  2242  0E7B  0AFB               	incf	(___awtoft@c),f
  2243  0E7C  1903               	skipnz
  2244  0E7D  0AFC               	incf	(___awtoft@c+1),f
  2245                           	line	39
  2246  0E7E  01A2               	clrf	(___awtoft@sign)
  2247  0E7F  1403               	bsf	status,0
  2248  0E80  0DA2               	rlf	(___awtoft@sign),f
  2249  0E81  2E82               	goto	l3689
  2250                           	line	40
  2251                           	
  2252  0E82                     l1567:	
  2253                           	line	41
  2254                           	
  2255  0E82                     l3689:	
  2256  0E82  087B               	movf	(___awtoft@c),w
  2257  0E83  00F0               	movwf	(?___ftpack)
  2258  0E84  087C               	movf	(___awtoft@c+1),w
  2259  0E85  00F1               	movwf	(?___ftpack+1)
  2260  0E86  01F2               	clrf	(?___ftpack+2)
  2261  0E87  308E               	movlw	(08Eh)
  2262  0E88  00A0               	movwf	(??___awtoft+0)+0
  2263  0E89  0820               	movf	(??___awtoft+0)+0,w
  2264  0E8A  00F3               	movwf	0+(?___ftpack)+03h
  2265  0E8B  0822               	movf	(___awtoft@sign),w
  2266  0E8C  00A1               	movwf	(??___awtoft+1)+0
  2267  0E8D  0821               	movf	(??___awtoft+1)+0,w
  2268  0E8E  00F4               	movwf	0+(?___ftpack)+04h
  2269  0E8F  120A  118A  20B1   	fcall	___ftpack
              120A  158A         
  2270  0E94  0870               	movf	(0+(?___ftpack)),w
  2271  0E95  00FB               	movwf	(?___awtoft)
  2272  0E96  0871               	movf	(1+(?___ftpack)),w
  2273  0E97  00FC               	movwf	(?___awtoft+1)
  2274  0E98  0872               	movf	(2+(?___ftpack)),w
  2275  0E99  00FD               	movwf	(?___awtoft+2)
  2276  0E9A  2E9B               	goto	l1568
  2277                           	
  2278  0E9B                     l3691:	
  2279                           	line	42
  2280                           	
  2281  0E9B                     l1568:	
  2282  0E9B  0008               	return
  2283                           	opt stack 0
  2284                           GLOBAL	__end_of___awtoft
  2285  0E9C                     	__end_of___awtoft:
  2286 ;; =============== function ___awtoft ends ============
  2287                           
  2288                           	signat	___awtoft,4219
  2289                           	global	___ftmul
  2290                           psect	text432,local,class=CODE,delta=2
  2291                           global __ptext432
  2292  04B1                     __ptext432:
  2293                           
  2294 ;; *************** function ___ftmul *****************
  2295 ;; Defined at:
  2296 ;;		line 52 in file "C:\Program Files (x86)\HI-TECH Software\PICC\9.82\sources\ftmul.c"
  2297 ;; Parameters:    Size  Location     Type
  2298 ;;  f1              3   10[BANK0 ] float 
  2299 ;;  f2              3   13[BANK0 ] float 
  2300 ;; Auto vars:     Size  Location     Type
  2301 ;;  f3_as_produc    3   21[BANK0 ] unsigned um
  2302 ;;  sign            1   25[BANK0 ] unsigned char 
  2303 ;;  cntr            1   24[BANK0 ] unsigned char 
  2304 ;;  exp             1   20[BANK0 ] unsigned char 
  2305 ;; Return value:  Size  Location     Type
  2306 ;;                  3   10[BANK0 ] float 
  2307 ;; Registers used:
  2308 ;;		wreg, status,2, status,0, pclath, cstack
  2309 ;; Tracked objects:
  2310 ;;		On entry : 0/0
  2311 ;;		On exit  : 0/0
  2312 ;;		Unchanged: 0/0
  2313 ;; Data sizes:     COMMON   BANK0   BANK1   BANK3   BANK2
  2314 ;;      Params:         0       6       0       0       0
  2315 ;;      Locals:         0       6       0       0       0
  2316 ;;      Temps:          0       4       0       0       0
  2317 ;;      Totals:         0      16       0       0       0
  2318 ;;Total ram usage:       16 bytes
  2319 ;; Hardware stack levels used:    1
  2320 ;; Hardware stack levels required when called:    1
  2321 ;; This function calls:
  2322 ;;		___ftpack
  2323 ;; This function is called by:
  2324 ;;		_adc_value
  2325 ;;		_temperature
  2326 ;; This function uses a non-reentrant model
  2327 ;;
  2328                           psect	text432
  2329                           	file	"C:\Program Files (x86)\HI-TECH Software\PICC\9.82\sources\ftmul.c"
  2330                           	line	52
  2331                           	global	__size_of___ftmul
  2332  00EE                     	__size_of___ftmul	equ	__end_of___ftmul-___ftmul
  2333                           	
  2334  04B1                     ___ftmul:	
  2335                           	opt	stack 5
  2336                           ; Regs used in ___ftmul: [wreg+status,2+status,0+pclath+cstack]
  2337                           	line	56
  2338                           	
  2339  04B1                     l3635:	
  2340  04B1  1283               	bcf	status, 5	;RP0=0, select bank0
  2341  04B2  1303               	bcf	status, 6	;RP1=0, select bank0
  2342  04B3  082A               	movf	(___ftmul@f1),w
  2343  04B4  00B0               	movwf	((??___ftmul+0)+0)
  2344  04B5  082B               	movf	(___ftmul@f1+1),w
  2345  04B6  00B1               	movwf	((??___ftmul+0)+0+1)
  2346  04B7  082C               	movf	(___ftmul@f1+2),w
  2347  04B8  00B2               	movwf	((??___ftmul+0)+0+2)
  2348  04B9  1003               	clrc
  2349  04BA  0D31               	rlf	(??___ftmul+0)+1,w
  2350  04BB  0D32               	rlf	(??___ftmul+0)+2,w
  2351  04BC  00B3               	movwf	(??___ftmul+3)+0
  2352  04BD  0833               	movf	(??___ftmul+3)+0,w
  2353  04BE  00B4               	movwf	(___ftmul@exp)
  2354  04BF  08B4               	movf	((___ftmul@exp)),f
  2355  04C0  1D03               	skipz
  2356  04C1  2CC3               	goto	u3261
  2357  04C2  2CC4               	goto	u3260
  2358  04C3                     u3261:
  2359  04C3  2CCC               	goto	l3641
  2360  04C4                     u3260:
  2361                           	line	57
  2362                           	
  2363  04C4                     l3637:	
  2364  04C4  3000               	movlw	0x0
  2365  04C5  00AA               	movwf	(?___ftmul)
  2366  04C6  3000               	movlw	0x0
  2367  04C7  00AB               	movwf	(?___ftmul+1)
  2368  04C8  3000               	movlw	0x0
  2369  04C9  00AC               	movwf	(?___ftmul+2)
  2370  04CA  2D9E               	goto	l1530
  2371                           	
  2372  04CB                     l3639:	
  2373  04CB  2D9E               	goto	l1530
  2374                           	
  2375  04CC                     l1529:	
  2376                           	line	58
  2377                           	
  2378  04CC                     l3641:	
  2379  04CC  082D               	movf	(___ftmul@f2),w
  2380  04CD  00B0               	movwf	((??___ftmul+0)+0)
  2381  04CE  082E               	movf	(___ftmul@f2+1),w
  2382  04CF  00B1               	movwf	((??___ftmul+0)+0+1)
  2383  04D0  082F               	movf	(___ftmul@f2+2),w
  2384  04D1  00B2               	movwf	((??___ftmul+0)+0+2)
  2385  04D2  1003               	clrc
  2386  04D3  0D31               	rlf	(??___ftmul+0)+1,w
  2387  04D4  0D32               	rlf	(??___ftmul+0)+2,w
  2388  04D5  00B3               	movwf	(??___ftmul+3)+0
  2389  04D6  0833               	movf	(??___ftmul+3)+0,w
  2390  04D7  00B9               	movwf	(___ftmul@sign)
  2391  04D8  08B9               	movf	((___ftmul@sign)),f
  2392  04D9  1D03               	skipz
  2393  04DA  2CDC               	goto	u3271
  2394  04DB  2CDD               	goto	u3270
  2395  04DC                     u3271:
  2396  04DC  2CE5               	goto	l3647
  2397  04DD                     u3270:
  2398                           	line	59
  2399                           	
  2400  04DD                     l3643:	
  2401  04DD  3000               	movlw	0x0
  2402  04DE  00AA               	movwf	(?___ftmul)
  2403  04DF  3000               	movlw	0x0
  2404  04E0  00AB               	movwf	(?___ftmul+1)
  2405  04E1  3000               	movlw	0x0
  2406  04E2  00AC               	movwf	(?___ftmul+2)
  2407  04E3  2D9E               	goto	l1530
  2408                           	
  2409  04E4                     l3645:	
  2410  04E4  2D9E               	goto	l1530
  2411                           	
  2412  04E5                     l1531:	
  2413                           	line	60
  2414                           	
  2415  04E5                     l3647:	
  2416  04E5  0839               	movf	(___ftmul@sign),w
  2417  04E6  3E7B               	addlw	07Bh
  2418  04E7  00B0               	movwf	(??___ftmul+0)+0
  2419  04E8  0830               	movf	(??___ftmul+0)+0,w
  2420  04E9  07B4               	addwf	(___ftmul@exp),f
  2421                           	line	61
  2422  04EA  082A               	movf	(___ftmul@f1),w
  2423  04EB  00B0               	movwf	((??___ftmul+0)+0)
  2424  04EC  082B               	movf	(___ftmul@f1+1),w
  2425  04ED  00B1               	movwf	((??___ftmul+0)+0+1)
  2426  04EE  082C               	movf	(___ftmul@f1+2),w
  2427  04EF  00B2               	movwf	((??___ftmul+0)+0+2)
  2428  04F0  3010               	movlw	010h
  2429  04F1                     u3285:
  2430  04F1  1003               	clrc
  2431  04F2  0CB2               	rrf	(??___ftmul+0)+2,f
  2432  04F3  0CB1               	rrf	(??___ftmul+0)+1,f
  2433  04F4  0CB0               	rrf	(??___ftmul+0)+0,f
  2434  04F5                     u3280:
  2435  04F5  3EFF               	addlw	-1
  2436  04F6  1D03               	skipz
  2437  04F7  2CF1               	goto	u3285
  2438  04F8  0830               	movf	0+(??___ftmul+0)+0,w
  2439  04F9  00B3               	movwf	(??___ftmul+3)+0
  2440  04FA  0833               	movf	(??___ftmul+3)+0,w
  2441  04FB  00B9               	movwf	(___ftmul@sign)
  2442                           	line	62
  2443  04FC  082D               	movf	(___ftmul@f2),w
  2444  04FD  00B0               	movwf	((??___ftmul+0)+0)
  2445  04FE  082E               	movf	(___ftmul@f2+1),w
  2446  04FF  00B1               	movwf	((??___ftmul+0)+0+1)
  2447  0500  082F               	movf	(___ftmul@f2+2),w
  2448  0501  00B2               	movwf	((??___ftmul+0)+0+2)
  2449  0502  3010               	movlw	010h
  2450  0503                     u3295:
  2451  0503  1003               	clrc
  2452  0504  0CB2               	rrf	(??___ftmul+0)+2,f
  2453  0505  0CB1               	rrf	(??___ftmul+0)+1,f
  2454  0506  0CB0               	rrf	(??___ftmul+0)+0,f
  2455  0507                     u3290:
  2456  0507  3EFF               	addlw	-1
  2457  0508  1D03               	skipz
  2458  0509  2D03               	goto	u3295
  2459  050A  0830               	movf	0+(??___ftmul+0)+0,w
  2460  050B  00B3               	movwf	(??___ftmul+3)+0
  2461  050C  0833               	movf	(??___ftmul+3)+0,w
  2462  050D  06B9               	xorwf	(___ftmul@sign),f
  2463                           	line	63
  2464  050E  3080               	movlw	(080h)
  2465  050F  00B0               	movwf	(??___ftmul+0)+0
  2466  0510  0830               	movf	(??___ftmul+0)+0,w
  2467  0511  05B9               	andwf	(___ftmul@sign),f
  2468                           	line	64
  2469                           	
  2470  0512                     l3649:	
  2471  0512  17AB               	bsf	(___ftmul@f1)+(15/8),(15)&7
  2472                           	line	66
  2473                           	
  2474  0513                     l3651:	
  2475  0513  17AE               	bsf	(___ftmul@f2)+(15/8),(15)&7
  2476                           	line	67
  2477                           	
  2478  0514                     l3653:	
  2479  0514  30FF               	movlw	0FFh
  2480  0515  05AD               	andwf	(___ftmul@f2),f
  2481  0516  30FF               	movlw	0FFh
  2482  0517  05AE               	andwf	(___ftmul@f2+1),f
  2483  0518  3000               	movlw	0
  2484  0519  05AF               	andwf	(___ftmul@f2+2),f
  2485                           	line	68
  2486                           	
  2487  051A                     l3655:	
  2488  051A  3000               	movlw	0
  2489  051B  00B5               	movwf	(___ftmul@f3_as_product)
  2490  051C  3000               	movlw	0
  2491  051D  00B6               	movwf	(___ftmul@f3_as_product+1)
  2492  051E  3000               	movlw	0
  2493  051F  00B7               	movwf	(___ftmul@f3_as_product+2)
  2494                           	line	69
  2495                           	
  2496  0520                     l3657:	
  2497  0520  3007               	movlw	(07h)
  2498  0521  00B0               	movwf	(??___ftmul+0)+0
  2499  0522  0830               	movf	(??___ftmul+0)+0,w
  2500  0523  00B8               	movwf	(___ftmul@cntr)
  2501  0524  2D25               	goto	l3659
  2502                           	line	70
  2503                           	
  2504  0525                     l1532:	
  2505                           	line	71
  2506                           	
  2507  0525                     l3659:	
  2508  0525  1C2A               	btfss	(___ftmul@f1),(0)&7
  2509  0526  2D28               	goto	u3301
  2510  0527  2D29               	goto	u3300
  2511  0528                     u3301:
  2512  0528  2D3A               	goto	l3663
  2513  0529                     u3300:
  2514                           	line	72
  2515                           	
  2516  0529                     l3661:	
  2517  0529  082D               	movf	(___ftmul@f2),w
  2518  052A  07B5               	addwf	(___ftmul@f3_as_product),f
  2519  052B  082E               	movf	(___ftmul@f2+1),w
  2520  052C  1103               	clrz
  2521  052D  1803               	skipnc
  2522  052E  0A2E               	incf	(___ftmul@f2+1),w
  2523  052F  1903               	skipnz
  2524  0530  2D32               	goto	u3311
  2525  0531  07B6               	addwf	(___ftmul@f3_as_product+1),f
  2526  0532                     u3311:
  2527  0532  082F               	movf	(___ftmul@f2+2),w
  2528  0533  1103               	clrz
  2529  0534  1803               	skipnc
  2530  0535  0A2F               	incf	(___ftmul@f2+2),w
  2531  0536  1903               	skipnz
  2532  0537  2D39               	goto	u3312
  2533  0538  07B7               	addwf	(___ftmul@f3_as_product+2),f
  2534  0539                     u3312:
  2535                           
  2536  0539  2D3A               	goto	l3663
  2537                           	
  2538  053A                     l1533:	
  2539                           	line	73
  2540                           	
  2541  053A                     l3663:	
  2542  053A  3001               	movlw	01h
  2543  053B                     u3325:
  2544  053B  1003               	clrc
  2545  053C  0CAC               	rrf	(___ftmul@f1+2),f
  2546  053D  0CAB               	rrf	(___ftmul@f1+1),f
  2547  053E  0CAA               	rrf	(___ftmul@f1),f
  2548  053F  3EFF               	addlw	-1
  2549  0540  1D03               	skipz
  2550  0541  2D3B               	goto	u3325
  2551                           
  2552                           	line	74
  2553                           	
  2554  0542                     l3665:	
  2555  0542  3001               	movlw	01h
  2556  0543                     u3335:
  2557  0543  1003               	clrc
  2558  0544  0DAD               	rlf	(___ftmul@f2),f
  2559  0545  0DAE               	rlf	(___ftmul@f2+1),f
  2560  0546  0DAF               	rlf	(___ftmul@f2+2),f
  2561  0547  3EFF               	addlw	-1
  2562  0548  1D03               	skipz
  2563  0549  2D43               	goto	u3335
  2564                           	line	75
  2565                           	
  2566  054A                     l3667:	
  2567  054A  3001               	movlw	low(01h)
  2568  054B  02B8               	subwf	(___ftmul@cntr),f
  2569  054C  1D03               	btfss	status,2
  2570  054D  2D4F               	goto	u3341
  2571  054E  2D50               	goto	u3340
  2572  054F                     u3341:
  2573  054F  2D25               	goto	l3659
  2574  0550                     u3340:
  2575  0550  2D51               	goto	l3669
  2576                           	
  2577  0551                     l1534:	
  2578                           	line	76
  2579                           	
  2580  0551                     l3669:	
  2581  0551  3009               	movlw	(09h)
  2582  0552  00B0               	movwf	(??___ftmul+0)+0
  2583  0553  0830               	movf	(??___ftmul+0)+0,w
  2584  0554  00B8               	movwf	(___ftmul@cntr)
  2585  0555  2D56               	goto	l3671
  2586                           	line	77
  2587                           	
  2588  0556                     l1535:	
  2589                           	line	78
  2590                           	
  2591  0556                     l3671:	
  2592  0556  1C2A               	btfss	(___ftmul@f1),(0)&7
  2593  0557  2D59               	goto	u3351
  2594  0558  2D5A               	goto	u3350
  2595  0559                     u3351:
  2596  0559  2D6B               	goto	l3675
  2597  055A                     u3350:
  2598                           	line	79
  2599                           	
  2600  055A                     l3673:	
  2601  055A  082D               	movf	(___ftmul@f2),w
  2602  055B  07B5               	addwf	(___ftmul@f3_as_product),f
  2603  055C  082E               	movf	(___ftmul@f2+1),w
  2604  055D  1103               	clrz
  2605  055E  1803               	skipnc
  2606  055F  0A2E               	incf	(___ftmul@f2+1),w
  2607  0560  1903               	skipnz
  2608  0561  2D63               	goto	u3361
  2609  0562  07B6               	addwf	(___ftmul@f3_as_product+1),f
  2610  0563                     u3361:
  2611  0563  082F               	movf	(___ftmul@f2+2),w
  2612  0564  1103               	clrz
  2613  0565  1803               	skipnc
  2614  0566  0A2F               	incf	(___ftmul@f2+2),w
  2615  0567  1903               	skipnz
  2616  0568  2D6A               	goto	u3362
  2617  0569  07B7               	addwf	(___ftmul@f3_as_product+2),f
  2618  056A                     u3362:
  2619                           
  2620  056A  2D6B               	goto	l3675
  2621                           	
  2622  056B                     l1536:	
  2623                           	line	80
  2624                           	
  2625  056B                     l3675:	
  2626  056B  3001               	movlw	01h
  2627  056C                     u3375:
  2628  056C  1003               	clrc
  2629  056D  0CAC               	rrf	(___ftmul@f1+2),f
  2630  056E  0CAB               	rrf	(___ftmul@f1+1),f
  2631  056F  0CAA               	rrf	(___ftmul@f1),f
  2632  0570  3EFF               	addlw	-1
  2633  0571  1D03               	skipz
  2634  0572  2D6C               	goto	u3375
  2635                           
  2636                           	line	81
  2637                           	
  2638  0573                     l3677:	
  2639  0573  3001               	movlw	01h
  2640  0574                     u3385:
  2641  0574  1003               	clrc
  2642  0575  0CB7               	rrf	(___ftmul@f3_as_product+2),f
  2643  0576  0CB6               	rrf	(___ftmul@f3_as_product+1),f
  2644  0577  0CB5               	rrf	(___ftmul@f3_as_product),f
  2645  0578  3EFF               	addlw	-1
  2646  0579  1D03               	skipz
  2647  057A  2D74               	goto	u3385
  2648                           
  2649                           	line	82
  2650                           	
  2651  057B                     l3679:	
  2652  057B  3001               	movlw	low(01h)
  2653  057C  02B8               	subwf	(___ftmul@cntr),f
  2654  057D  1D03               	btfss	status,2
  2655  057E  2D80               	goto	u3391
  2656  057F  2D81               	goto	u3390
  2657  0580                     u3391:
  2658  0580  2D56               	goto	l3671
  2659  0581                     u3390:
  2660  0581  2D82               	goto	l3681
  2661                           	
  2662  0582                     l1537:	
  2663                           	line	83
  2664                           	
  2665  0582                     l3681:	
  2666  0582  0835               	movf	(___ftmul@f3_as_product),w
  2667  0583  00F0               	movwf	(?___ftpack)
  2668  0584  0836               	movf	(___ftmul@f3_as_product+1),w
  2669  0585  00F1               	movwf	(?___ftpack+1)
  2670  0586  0837               	movf	(___ftmul@f3_as_product+2),w
  2671  0587  00F2               	movwf	(?___ftpack+2)
  2672  0588  0834               	movf	(___ftmul@exp),w
  2673  0589  00B0               	movwf	(??___ftmul+0)+0
  2674  058A  0830               	movf	(??___ftmul+0)+0,w
  2675  058B  00F3               	movwf	0+(?___ftpack)+03h
  2676  058C  0839               	movf	(___ftmul@sign),w
  2677  058D  00B1               	movwf	(??___ftmul+1)+0
  2678  058E  0831               	movf	(??___ftmul+1)+0,w
  2679  058F  00F4               	movwf	0+(?___ftpack)+04h
  2680  0590  120A  118A  20B1   	fcall	___ftpack
              120A  118A         
  2681  0595  0870               	movf	(0+(?___ftpack)),w
  2682  0596  1283               	bcf	status, 5	;RP0=0, select bank0
  2683  0597  1303               	bcf	status, 6	;RP1=0, select bank0
  2684  0598  00AA               	movwf	(?___ftmul)
  2685  0599  0871               	movf	(1+(?___ftpack)),w
  2686  059A  00AB               	movwf	(?___ftmul+1)
  2687  059B  0872               	movf	(2+(?___ftpack)),w
  2688  059C  00AC               	movwf	(?___ftmul+2)
  2689  059D  2D9E               	goto	l1530
  2690                           	
  2691  059E                     l3683:	
  2692                           	line	84
  2693                           	
  2694  059E                     l1530:	
  2695  059E  0008               	return
  2696                           	opt stack 0
  2697                           GLOBAL	__end_of___ftmul
  2698  059F                     	__end_of___ftmul:
  2699 ;; =============== function ___ftmul ends ============
  2700                           
  2701                           	signat	___ftmul,8315
  2702                           	global	___ftdiv
  2703                           psect	text433,local,class=CODE,delta=2
  2704                           global __ptext433
  2705  0306                     __ptext433:
  2706                           
  2707 ;; *************** function ___ftdiv *****************
  2708 ;; Defined at:
  2709 ;;		line 50 in file "C:\Program Files (x86)\HI-TECH Software\PICC\9.82\sources\ftdiv.c"
  2710 ;; Parameters:    Size  Location     Type
  2711 ;;  f2              3   26[BANK0 ] float 
  2712 ;;  f1              3   29[BANK0 ] float 
  2713 ;; Auto vars:     Size  Location     Type
  2714 ;;  f3              3   37[BANK0 ] float 
  2715 ;;  sign            1   41[BANK0 ] unsigned char 
  2716 ;;  exp             1   40[BANK0 ] unsigned char 
  2717 ;;  cntr            1   36[BANK0 ] unsigned char 
  2718 ;; Return value:  Size  Location     Type
  2719 ;;                  3   26[BANK0 ] float 
  2720 ;; Registers used:
  2721 ;;		wreg, status,2, status,0, pclath, cstack
  2722 ;; Tracked objects:
  2723 ;;		On entry : 0/0
  2724 ;;		On exit  : 0/0
  2725 ;;		Unchanged: 0/0
  2726 ;; Data sizes:     COMMON   BANK0   BANK1   BANK3   BANK2
  2727 ;;      Params:         0       6       0       0       0
  2728 ;;      Locals:         0       6       0       0       0
  2729 ;;      Temps:          0       4       0       0       0
  2730 ;;      Totals:         0      16       0       0       0
  2731 ;;Total ram usage:       16 bytes
  2732 ;; Hardware stack levels used:    1
  2733 ;; Hardware stack levels required when called:    1
  2734 ;; This function calls:
  2735 ;;		___ftpack
  2736 ;; This function is called by:
  2737 ;;		_adc_value
  2738 ;; This function uses a non-reentrant model
  2739 ;;
  2740                           psect	text433
  2741                           	file	"C:\Program Files (x86)\HI-TECH Software\PICC\9.82\sources\ftdiv.c"
  2742                           	line	50
  2743                           	global	__size_of___ftdiv
  2744  00C8                     	__size_of___ftdiv	equ	__end_of___ftdiv-___ftdiv
  2745                           	
  2746  0306                     ___ftdiv:	
  2747                           	opt	stack 5
  2748                           ; Regs used in ___ftdiv: [wreg+status,2+status,0+pclath+cstack]
  2749                           	line	55
  2750                           	
  2751  0306                     l3593:	
  2752  0306  1283               	bcf	status, 5	;RP0=0, select bank0
  2753  0307  1303               	bcf	status, 6	;RP1=0, select bank0
  2754  0308  083D               	movf	(___ftdiv@f1),w
  2755  0309  00C0               	movwf	((??___ftdiv+0)+0)
  2756  030A  083E               	movf	(___ftdiv@f1+1),w
  2757  030B  00C1               	movwf	((??___ftdiv+0)+0+1)
  2758  030C  083F               	movf	(___ftdiv@f1+2),w
  2759  030D  00C2               	movwf	((??___ftdiv+0)+0+2)
  2760  030E  1003               	clrc
  2761  030F  0D41               	rlf	(??___ftdiv+0)+1,w
  2762  0310  0D42               	rlf	(??___ftdiv+0)+2,w
  2763  0311  00C3               	movwf	(??___ftdiv+3)+0
  2764  0312  0843               	movf	(??___ftdiv+3)+0,w
  2765  0313  00C8               	movwf	(___ftdiv@exp)
  2766  0314  08C8               	movf	((___ftdiv@exp)),f
  2767  0315  1D03               	skipz
  2768  0316  2B18               	goto	u3181
  2769  0317  2B19               	goto	u3180
  2770  0318                     u3181:
  2771  0318  2B21               	goto	l3599
  2772  0319                     u3180:
  2773                           	line	56
  2774                           	
  2775  0319                     l3595:	
  2776  0319  3000               	movlw	0x0
  2777  031A  00BA               	movwf	(?___ftdiv)
  2778  031B  3000               	movlw	0x0
  2779  031C  00BB               	movwf	(?___ftdiv+1)
  2780  031D  3000               	movlw	0x0
  2781  031E  00BC               	movwf	(?___ftdiv+2)
  2782  031F  2BCD               	goto	l1520
  2783                           	
  2784  0320                     l3597:	
  2785  0320  2BCD               	goto	l1520
  2786                           	
  2787  0321                     l1519:	
  2788                           	line	57
  2789                           	
  2790  0321                     l3599:	
  2791  0321  083A               	movf	(___ftdiv@f2),w
  2792  0322  00C0               	movwf	((??___ftdiv+0)+0)
  2793  0323  083B               	movf	(___ftdiv@f2+1),w
  2794  0324  00C1               	movwf	((??___ftdiv+0)+0+1)
  2795  0325  083C               	movf	(___ftdiv@f2+2),w
  2796  0326  00C2               	movwf	((??___ftdiv+0)+0+2)
  2797  0327  1003               	clrc
  2798  0328  0D41               	rlf	(??___ftdiv+0)+1,w
  2799  0329  0D42               	rlf	(??___ftdiv+0)+2,w
  2800  032A  00C3               	movwf	(??___ftdiv+3)+0
  2801  032B  0843               	movf	(??___ftdiv+3)+0,w
  2802  032C  00C9               	movwf	(___ftdiv@sign)
  2803  032D  08C9               	movf	((___ftdiv@sign)),f
  2804  032E  1D03               	skipz
  2805  032F  2B31               	goto	u3191
  2806  0330  2B32               	goto	u3190
  2807  0331                     u3191:
  2808  0331  2B3A               	goto	l3605
  2809  0332                     u3190:
  2810                           	line	58
  2811                           	
  2812  0332                     l3601:	
  2813  0332  3000               	movlw	0x0
  2814  0333  00BA               	movwf	(?___ftdiv)
  2815  0334  3000               	movlw	0x0
  2816  0335  00BB               	movwf	(?___ftdiv+1)
  2817  0336  3000               	movlw	0x0
  2818  0337  00BC               	movwf	(?___ftdiv+2)
  2819  0338  2BCD               	goto	l1520
  2820                           	
  2821  0339                     l3603:	
  2822  0339  2BCD               	goto	l1520
  2823                           	
  2824  033A                     l1521:	
  2825                           	line	59
  2826                           	
  2827  033A                     l3605:	
  2828  033A  3000               	movlw	0
  2829  033B  00C5               	movwf	(___ftdiv@f3)
  2830  033C  3000               	movlw	0
  2831  033D  00C6               	movwf	(___ftdiv@f3+1)
  2832  033E  3000               	movlw	0
  2833  033F  00C7               	movwf	(___ftdiv@f3+2)
  2834                           	line	60
  2835                           	
  2836  0340                     l3607:	
  2837  0340  3089               	movlw	(089h)
  2838  0341  0749               	addwf	(___ftdiv@sign),w
  2839  0342  00C0               	movwf	(??___ftdiv+0)+0
  2840  0343  0840               	movf	0+(??___ftdiv+0)+0,w
  2841  0344  02C8               	subwf	(___ftdiv@exp),f
  2842                           	line	61
  2843                           	
  2844  0345                     l3609:	
  2845  0345  083D               	movf	(___ftdiv@f1),w
  2846  0346  00C0               	movwf	((??___ftdiv+0)+0)
  2847  0347  083E               	movf	(___ftdiv@f1+1),w
  2848  0348  00C1               	movwf	((??___ftdiv+0)+0+1)
  2849  0349  083F               	movf	(___ftdiv@f1+2),w
  2850  034A  00C2               	movwf	((??___ftdiv+0)+0+2)
  2851  034B  3010               	movlw	010h
  2852  034C                     u3205:
  2853  034C  1003               	clrc
  2854  034D  0CC2               	rrf	(??___ftdiv+0)+2,f
  2855  034E  0CC1               	rrf	(??___ftdiv+0)+1,f
  2856  034F  0CC0               	rrf	(??___ftdiv+0)+0,f
  2857  0350                     u3200:
  2858  0350  3EFF               	addlw	-1
  2859  0351  1D03               	skipz
  2860  0352  2B4C               	goto	u3205
  2861  0353  0840               	movf	0+(??___ftdiv+0)+0,w
  2862  0354  00C3               	movwf	(??___ftdiv+3)+0
  2863  0355  0843               	movf	(??___ftdiv+3)+0,w
  2864  0356  00C9               	movwf	(___ftdiv@sign)
  2865                           	line	62
  2866                           	
  2867  0357                     l3611:	
  2868  0357  083A               	movf	(___ftdiv@f2),w
  2869  0358  00C0               	movwf	((??___ftdiv+0)+0)
  2870  0359  083B               	movf	(___ftdiv@f2+1),w
  2871  035A  00C1               	movwf	((??___ftdiv+0)+0+1)
  2872  035B  083C               	movf	(___ftdiv@f2+2),w
  2873  035C  00C2               	movwf	((??___ftdiv+0)+0+2)
  2874  035D  3010               	movlw	010h
  2875  035E                     u3215:
  2876  035E  1003               	clrc
  2877  035F  0CC2               	rrf	(??___ftdiv+0)+2,f
  2878  0360  0CC1               	rrf	(??___ftdiv+0)+1,f
  2879  0361  0CC0               	rrf	(??___ftdiv+0)+0,f
  2880  0362                     u3210:
  2881  0362  3EFF               	addlw	-1
  2882  0363  1D03               	skipz
  2883  0364  2B5E               	goto	u3215
  2884  0365  0840               	movf	0+(??___ftdiv+0)+0,w
  2885  0366  00C3               	movwf	(??___ftdiv+3)+0
  2886  0367  0843               	movf	(??___ftdiv+3)+0,w
  2887  0368  06C9               	xorwf	(___ftdiv@sign),f
  2888                           	line	63
  2889                           	
  2890  0369                     l3613:	
  2891  0369  3080               	movlw	(080h)
  2892  036A  00C0               	movwf	(??___ftdiv+0)+0
  2893  036B  0840               	movf	(??___ftdiv+0)+0,w
  2894  036C  05C9               	andwf	(___ftdiv@sign),f
  2895                           	line	64
  2896                           	
  2897  036D                     l3615:	
  2898  036D  17BE               	bsf	(___ftdiv@f1)+(15/8),(15)&7
  2899                           	line	65
  2900  036E  30FF               	movlw	0FFh
  2901  036F  05BD               	andwf	(___ftdiv@f1),f
  2902  0370  30FF               	movlw	0FFh
  2903  0371  05BE               	andwf	(___ftdiv@f1+1),f
  2904  0372  3000               	movlw	0
  2905  0373  05BF               	andwf	(___ftdiv@f1+2),f
  2906                           	line	66
  2907                           	
  2908  0374                     l3617:	
  2909  0374  17BB               	bsf	(___ftdiv@f2)+(15/8),(15)&7
  2910                           	line	67
  2911  0375  30FF               	movlw	0FFh
  2912  0376  05BA               	andwf	(___ftdiv@f2),f
  2913  0377  30FF               	movlw	0FFh
  2914  0378  05BB               	andwf	(___ftdiv@f2+1),f
  2915  0379  3000               	movlw	0
  2916  037A  05BC               	andwf	(___ftdiv@f2+2),f
  2917                           	line	68
  2918  037B  3018               	movlw	(018h)
  2919  037C  00C0               	movwf	(??___ftdiv+0)+0
  2920  037D  0840               	movf	(??___ftdiv+0)+0,w
  2921  037E  00C4               	movwf	(___ftdiv@cntr)
  2922  037F  2B80               	goto	l3619
  2923                           	line	69
  2924                           	
  2925  0380                     l1522:	
  2926                           	line	70
  2927                           	
  2928  0380                     l3619:	
  2929  0380  3001               	movlw	01h
  2930  0381                     u3225:
  2931  0381  1003               	clrc
  2932  0382  0DC5               	rlf	(___ftdiv@f3),f
  2933  0383  0DC6               	rlf	(___ftdiv@f3+1),f
  2934  0384  0DC7               	rlf	(___ftdiv@f3+2),f
  2935  0385  3EFF               	addlw	-1
  2936  0386  1D03               	skipz
  2937  0387  2B81               	goto	u3225
  2938                           	line	71
  2939                           	
  2940  0388                     l3621:	
  2941  0388  083C               	movf	(___ftdiv@f2+2),w
  2942  0389  023F               	subwf	(___ftdiv@f1+2),w
  2943  038A  1D03               	skipz
  2944  038B  2B92               	goto	u3235
  2945  038C  083B               	movf	(___ftdiv@f2+1),w
  2946  038D  023E               	subwf	(___ftdiv@f1+1),w
  2947  038E  1D03               	skipz
  2948  038F  2B92               	goto	u3235
  2949  0390  083A               	movf	(___ftdiv@f2),w
  2950  0391  023D               	subwf	(___ftdiv@f1),w
  2951  0392                     u3235:
  2952  0392  1C03               	skipc
  2953  0393  2B95               	goto	u3231
  2954  0394  2B96               	goto	u3230
  2955  0395                     u3231:
  2956  0395  2BA2               	goto	l3627
  2957  0396                     u3230:
  2958                           	line	72
  2959                           	
  2960  0396                     l3623:	
  2961  0396  083A               	movf	(___ftdiv@f2),w
  2962  0397  02BD               	subwf	(___ftdiv@f1),f
  2963  0398  083B               	movf	(___ftdiv@f2+1),w
  2964  0399  1C03               	skipc
  2965  039A  0F3B               	incfsz	(___ftdiv@f2+1),w
  2966  039B  02BE               	subwf	(___ftdiv@f1+1),f
  2967  039C  083C               	movf	(___ftdiv@f2+2),w
  2968  039D  1C03               	skipc
  2969  039E  0A3C               	incf	(___ftdiv@f2+2),w
  2970  039F  02BF               	subwf	(___ftdiv@f1+2),f
  2971                           	line	73
  2972                           	
  2973  03A0                     l3625:	
  2974  03A0  1445               	bsf	(___ftdiv@f3)+(0/8),(0)&7
  2975  03A1  2BA2               	goto	l3627
  2976                           	line	74
  2977                           	
  2978  03A2                     l1523:	
  2979                           	line	75
  2980                           	
  2981  03A2                     l3627:	
  2982  03A2  3001               	movlw	01h
  2983  03A3                     u3245:
  2984  03A3  1003               	clrc
  2985  03A4  0DBD               	rlf	(___ftdiv@f1),f
  2986  03A5  0DBE               	rlf	(___ftdiv@f1+1),f
  2987  03A6  0DBF               	rlf	(___ftdiv@f1+2),f
  2988  03A7  3EFF               	addlw	-1
  2989  03A8  1D03               	skipz
  2990  03A9  2BA3               	goto	u3245
  2991                           	line	76
  2992                           	
  2993  03AA                     l3629:	
  2994  03AA  3001               	movlw	low(01h)
  2995  03AB  02C4               	subwf	(___ftdiv@cntr),f
  2996  03AC  1D03               	btfss	status,2
  2997  03AD  2BAF               	goto	u3251
  2998  03AE  2BB0               	goto	u3250
  2999  03AF                     u3251:
  3000  03AF  2B80               	goto	l3619
  3001  03B0                     u3250:
  3002  03B0  2BB1               	goto	l3631
  3003                           	
  3004  03B1                     l1524:	
  3005                           	line	77
  3006                           	
  3007  03B1                     l3631:	
  3008  03B1  0845               	movf	(___ftdiv@f3),w
  3009  03B2  00F0               	movwf	(?___ftpack)
  3010  03B3  0846               	movf	(___ftdiv@f3+1),w
  3011  03B4  00F1               	movwf	(?___ftpack+1)
  3012  03B5  0847               	movf	(___ftdiv@f3+2),w
  3013  03B6  00F2               	movwf	(?___ftpack+2)
  3014  03B7  0848               	movf	(___ftdiv@exp),w
  3015  03B8  00C0               	movwf	(??___ftdiv+0)+0
  3016  03B9  0840               	movf	(??___ftdiv+0)+0,w
  3017  03BA  00F3               	movwf	0+(?___ftpack)+03h
  3018  03BB  0849               	movf	(___ftdiv@sign),w
  3019  03BC  00C1               	movwf	(??___ftdiv+1)+0
  3020  03BD  0841               	movf	(??___ftdiv+1)+0,w
  3021  03BE  00F4               	movwf	0+(?___ftpack)+04h
  3022  03BF  120A  118A  20B1   	fcall	___ftpack
              120A  118A         
  3023  03C4  0870               	movf	(0+(?___ftpack)),w
  3024  03C5  1283               	bcf	status, 5	;RP0=0, select bank0
  3025  03C6  1303               	bcf	status, 6	;RP1=0, select bank0
  3026  03C7  00BA               	movwf	(?___ftdiv)
  3027  03C8  0871               	movf	(1+(?___ftpack)),w
  3028  03C9  00BB               	movwf	(?___ftdiv+1)
  3029  03CA  0872               	movf	(2+(?___ftpack)),w
  3030  03CB  00BC               	movwf	(?___ftdiv+2)
  3031  03CC  2BCD               	goto	l1520
  3032                           	
  3033  03CD                     l3633:	
  3034                           	line	78
  3035                           	
  3036  03CD                     l1520:	
  3037  03CD  0008               	return
  3038                           	opt stack 0
  3039                           GLOBAL	__end_of___ftdiv
  3040  03CE                     	__end_of___ftdiv:
  3041 ;; =============== function ___ftdiv ends ============
  3042                           
  3043                           	signat	___ftdiv,8315
  3044                           	global	___ftadd
  3045                           psect	text434,local,class=CODE,delta=2
  3046                           global __ptext434
  3047  06BA                     __ptext434:
  3048                           
  3049 ;; *************** function ___ftadd *****************
  3050 ;; Defined at:
  3051 ;;		line 87 in file "C:\Program Files (x86)\HI-TECH Software\PICC\9.82\sources\ftadd.c"
  3052 ;; Parameters:    Size  Location     Type
  3053 ;;  f1              3    3[BANK0 ] float 
  3054 ;;  f2              3    6[BANK0 ] float 
  3055 ;; Auto vars:     Size  Location     Type
  3056 ;;  exp1            1   15[BANK0 ] unsigned char 
  3057 ;;  exp2            1   14[BANK0 ] unsigned char 
  3058 ;;  sign            1   13[BANK0 ] unsigned char 
  3059 ;; Return value:  Size  Location     Type
  3060 ;;                  3    3[BANK0 ] float 
  3061 ;; Registers used:
  3062 ;;		wreg, status,2, status,0, pclath, cstack
  3063 ;; Tracked objects:
  3064 ;;		On entry : 0/0
  3065 ;;		On exit  : 0/0
  3066 ;;		Unchanged: 0/0
  3067 ;; Data sizes:     COMMON   BANK0   BANK1   BANK3   BANK2
  3068 ;;      Params:         0       6       0       0       0
  3069 ;;      Locals:         0       3       0       0       0
  3070 ;;      Temps:          0       4       0       0       0
  3071 ;;      Totals:         0      13       0       0       0
  3072 ;;Total ram usage:       13 bytes
  3073 ;; Hardware stack levels used:    1
  3074 ;; Hardware stack levels required when called:    1
  3075 ;; This function calls:
  3076 ;;		___ftpack
  3077 ;; This function is called by:
  3078 ;;		_temperature
  3079 ;;		___ftsub
  3080 ;; This function uses a non-reentrant model
  3081 ;;
  3082                           psect	text434
  3083                           	file	"C:\Program Files (x86)\HI-TECH Software\PICC\9.82\sources\ftadd.c"
  3084                           	line	87
  3085                           	global	__size_of___ftadd
  3086  0146                     	__size_of___ftadd	equ	__end_of___ftadd-___ftadd
  3087                           	
  3088  06BA                     ___ftadd:	
  3089                           	opt	stack 5
  3090                           ; Regs used in ___ftadd: [wreg+status,2+status,0+pclath+cstack]
  3091                           	line	90
  3092                           	
  3093  06BA                     l3523:	
  3094  06BA  1283               	bcf	status, 5	;RP0=0, select bank0
  3095  06BB  1303               	bcf	status, 6	;RP1=0, select bank0
  3096  06BC  0823               	movf	(___ftadd@f1),w
  3097  06BD  00A9               	movwf	((??___ftadd+0)+0)
  3098  06BE  0824               	movf	(___ftadd@f1+1),w
  3099  06BF  00AA               	movwf	((??___ftadd+0)+0+1)
  3100  06C0  0825               	movf	(___ftadd@f1+2),w
  3101  06C1  00AB               	movwf	((??___ftadd+0)+0+2)
  3102  06C2  1003               	clrc
  3103  06C3  0D2A               	rlf	(??___ftadd+0)+1,w
  3104  06C4  0D2B               	rlf	(??___ftadd+0)+2,w
  3105  06C5  00AC               	movwf	(??___ftadd+3)+0
  3106  06C6  082C               	movf	(??___ftadd+3)+0,w
  3107  06C7  00AF               	movwf	(___ftadd@exp1)
  3108                           	line	91
  3109  06C8  0826               	movf	(___ftadd@f2),w
  3110  06C9  00A9               	movwf	((??___ftadd+0)+0)
  3111  06CA  0827               	movf	(___ftadd@f2+1),w
  3112  06CB  00AA               	movwf	((??___ftadd+0)+0+1)
  3113  06CC  0828               	movf	(___ftadd@f2+2),w
  3114  06CD  00AB               	movwf	((??___ftadd+0)+0+2)
  3115  06CE  1003               	clrc
  3116  06CF  0D2A               	rlf	(??___ftadd+0)+1,w
  3117  06D0  0D2B               	rlf	(??___ftadd+0)+2,w
  3118  06D1  00AC               	movwf	(??___ftadd+3)+0
  3119  06D2  082C               	movf	(??___ftadd+3)+0,w
  3120  06D3  00AE               	movwf	(___ftadd@exp2)
  3121                           	line	92
  3122                           	
  3123  06D4                     l3525:	
  3124  06D4  082F               	movf	(___ftadd@exp1),w
  3125  06D5  1D03               	skipz
  3126  06D6  2ED8               	goto	u2940
  3127  06D7  2EE9               	goto	l3531
  3128  06D8                     u2940:
  3129                           	
  3130  06D8                     l3527:	
  3131  06D8  082E               	movf	(___ftadd@exp2),w
  3132  06D9  022F               	subwf	(___ftadd@exp1),w
  3133  06DA  1803               	skipnc
  3134  06DB  2EDD               	goto	u2951
  3135  06DC  2EDE               	goto	u2950
  3136  06DD                     u2951:
  3137  06DD  2EF1               	goto	l3535
  3138  06DE                     u2950:
  3139                           	
  3140  06DE                     l3529:	
  3141  06DE  032F               	decf	(___ftadd@exp1),w
  3142  06DF  3AFF               	xorlw	0ffh
  3143  06E0  072E               	addwf	(___ftadd@exp2),w
  3144  06E1  00A9               	movwf	(??___ftadd+0)+0
  3145  06E2  3019               	movlw	(019h)
  3146  06E3  0229               	subwf	0+(??___ftadd+0)+0,w
  3147  06E4  1C03               	skipc
  3148  06E5  2EE7               	goto	u2961
  3149  06E6  2EE8               	goto	u2960
  3150  06E7                     u2961:
  3151  06E7  2EF1               	goto	l3535
  3152  06E8                     u2960:
  3153  06E8  2EE9               	goto	l3531
  3154                           	
  3155  06E9                     l1477:	
  3156                           	line	93
  3157                           	
  3158  06E9                     l3531:	
  3159  06E9  0826               	movf	(___ftadd@f2),w
  3160  06EA  00A3               	movwf	(?___ftadd)
  3161  06EB  0827               	movf	(___ftadd@f2+1),w
  3162  06EC  00A4               	movwf	(?___ftadd+1)
  3163  06ED  0828               	movf	(___ftadd@f2+2),w
  3164  06EE  00A5               	movwf	(?___ftadd+2)
  3165  06EF  2FFF               	goto	l1478
  3166                           	
  3167  06F0                     l3533:	
  3168  06F0  2FFF               	goto	l1478
  3169                           	
  3170  06F1                     l1475:	
  3171                           	line	94
  3172                           	
  3173  06F1                     l3535:	
  3174  06F1  082E               	movf	(___ftadd@exp2),w
  3175  06F2  1D03               	skipz
  3176  06F3  2EF5               	goto	u2970
  3177  06F4  2F05               	goto	l1481
  3178  06F5                     u2970:
  3179                           	
  3180  06F5                     l3537:	
  3181  06F5  082F               	movf	(___ftadd@exp1),w
  3182  06F6  022E               	subwf	(___ftadd@exp2),w
  3183  06F7  1803               	skipnc
  3184  06F8  2EFA               	goto	u2981
  3185  06F9  2EFB               	goto	u2980
  3186  06FA                     u2981:
  3187  06FA  2F06               	goto	l3541
  3188  06FB                     u2980:
  3189                           	
  3190  06FB                     l3539:	
  3191  06FB  032E               	decf	(___ftadd@exp2),w
  3192  06FC  3AFF               	xorlw	0ffh
  3193  06FD  072F               	addwf	(___ftadd@exp1),w
  3194  06FE  00A9               	movwf	(??___ftadd+0)+0
  3195  06FF  3019               	movlw	(019h)
  3196  0700  0229               	subwf	0+(??___ftadd+0)+0,w
  3197  0701  1C03               	skipc
  3198  0702  2F04               	goto	u2991
  3199  0703  2F05               	goto	u2990
  3200  0704                     u2991:
  3201  0704  2F06               	goto	l3541
  3202  0705                     u2990:
  3203                           	
  3204  0705                     l1481:	
  3205                           	line	95
  3206  0705  2FFF               	goto	l1478
  3207                           	
  3208  0706                     l1479:	
  3209                           	line	96
  3210                           	
  3211  0706                     l3541:	
  3212  0706  3006               	movlw	(06h)
  3213  0707  00A9               	movwf	(??___ftadd+0)+0
  3214  0708  0829               	movf	(??___ftadd+0)+0,w
  3215  0709  00AD               	movwf	(___ftadd@sign)
  3216                           	line	97
  3217                           	
  3218  070A                     l3543:	
  3219  070A  1FA5               	btfss	(___ftadd@f1+2),(23)&7
  3220  070B  2F0D               	goto	u3001
  3221  070C  2F0E               	goto	u3000
  3222  070D                     u3001:
  3223  070D  2F0F               	goto	l1482
  3224  070E                     u3000:
  3225                           	line	98
  3226                           	
  3227  070E                     l3545:	
  3228  070E  17AD               	bsf	(___ftadd@sign)+(7/8),(7)&7
  3229                           	
  3230  070F                     l1482:	
  3231                           	line	99
  3232  070F  1FA8               	btfss	(___ftadd@f2+2),(23)&7
  3233  0710  2F12               	goto	u3011
  3234  0711  2F13               	goto	u3010
  3235  0712                     u3011:
  3236  0712  2F14               	goto	l1483
  3237  0713                     u3010:
  3238                           	line	100
  3239                           	
  3240  0713                     l3547:	
  3241  0713  172D               	bsf	(___ftadd@sign)+(6/8),(6)&7
  3242                           	
  3243  0714                     l1483:	
  3244                           	line	101
  3245  0714  17A4               	bsf	(___ftadd@f1)+(15/8),(15)&7
  3246                           	line	102
  3247                           	
  3248  0715                     l3549:	
  3249  0715  30FF               	movlw	0FFh
  3250  0716  05A3               	andwf	(___ftadd@f1),f
  3251  0717  30FF               	movlw	0FFh
  3252  0718  05A4               	andwf	(___ftadd@f1+1),f
  3253  0719  3000               	movlw	0
  3254  071A  05A5               	andwf	(___ftadd@f1+2),f
  3255                           	line	103
  3256                           	
  3257  071B                     l3551:	
  3258  071B  17A7               	bsf	(___ftadd@f2)+(15/8),(15)&7
  3259                           	line	104
  3260  071C  30FF               	movlw	0FFh
  3261  071D  05A6               	andwf	(___ftadd@f2),f
  3262  071E  30FF               	movlw	0FFh
  3263  071F  05A7               	andwf	(___ftadd@f2+1),f
  3264  0720  3000               	movlw	0
  3265  0721  05A8               	andwf	(___ftadd@f2+2),f
  3266                           	line	106
  3267  0722  082E               	movf	(___ftadd@exp2),w
  3268  0723  022F               	subwf	(___ftadd@exp1),w
  3269  0724  1803               	skipnc
  3270  0725  2F27               	goto	u3021
  3271  0726  2F28               	goto	u3020
  3272  0727                     u3021:
  3273  0727  2F59               	goto	l3563
  3274  0728                     u3020:
  3275  0728  2F29               	goto	l3553
  3276                           	line	109
  3277                           	
  3278  0729                     l1485:	
  3279                           	line	110
  3280                           	
  3281  0729                     l3553:	
  3282  0729  3001               	movlw	01h
  3283  072A                     u3035:
  3284  072A  1003               	clrc
  3285  072B  0DA6               	rlf	(___ftadd@f2),f
  3286  072C  0DA7               	rlf	(___ftadd@f2+1),f
  3287  072D  0DA8               	rlf	(___ftadd@f2+2),f
  3288  072E  3EFF               	addlw	-1
  3289  072F  1D03               	skipz
  3290  0730  2F2A               	goto	u3035
  3291                           	line	111
  3292  0731  3001               	movlw	low(01h)
  3293  0732  02AE               	subwf	(___ftadd@exp2),f
  3294                           	line	112
  3295                           	
  3296  0733                     l3555:	
  3297  0733  082E               	movf	(___ftadd@exp2),w
  3298  0734  062F               	xorwf	(___ftadd@exp1),w
  3299  0735  1903               	skipnz
  3300  0736  2F38               	goto	u3041
  3301  0737  2F39               	goto	u3040
  3302  0738                     u3041:
  3303  0738  2F51               	goto	l3561
  3304  0739                     u3040:
  3305                           	
  3306  0739                     l3557:	
  3307  0739  3001               	movlw	low(01h)
  3308  073A  02AD               	subwf	(___ftadd@sign),f
  3309  073B  082D               	movf	((___ftadd@sign)),w
  3310  073C  3907               	andlw	07h
  3311  073D  1D03               	btfss	status,2
  3312  073E  2F40               	goto	u3051
  3313  073F  2F41               	goto	u3050
  3314  0740                     u3051:
  3315  0740  2F29               	goto	l3553
  3316  0741                     u3050:
  3317  0741  2F51               	goto	l3561
  3318                           	
  3319  0742                     l1487:	
  3320  0742  2F51               	goto	l3561
  3321                           	
  3322  0743                     l1488:	
  3323                           	line	113
  3324  0743  2F51               	goto	l3561
  3325                           	
  3326  0744                     l1490:	
  3327                           	line	114
  3328                           	
  3329  0744                     l3559:	
  3330  0744  3001               	movlw	01h
  3331  0745                     u3065:
  3332  0745  1003               	clrc
  3333  0746  0CA5               	rrf	(___ftadd@f1+2),f
  3334  0747  0CA4               	rrf	(___ftadd@f1+1),f
  3335  0748  0CA3               	rrf	(___ftadd@f1),f
  3336  0749  3EFF               	addlw	-1
  3337  074A  1D03               	skipz
  3338  074B  2F45               	goto	u3065
  3339                           
  3340                           	line	115
  3341  074C  3001               	movlw	(01h)
  3342  074D  00A9               	movwf	(??___ftadd+0)+0
  3343  074E  0829               	movf	(??___ftadd+0)+0,w
  3344  074F  07AF               	addwf	(___ftadd@exp1),f
  3345  0750  2F51               	goto	l3561
  3346                           	line	116
  3347                           	
  3348  0751                     l1489:	
  3349                           	line	113
  3350                           	
  3351  0751                     l3561:	
  3352  0751  082F               	movf	(___ftadd@exp1),w
  3353  0752  062E               	xorwf	(___ftadd@exp2),w
  3354  0753  1D03               	skipz
  3355  0754  2F56               	goto	u3071
  3356  0755  2F57               	goto	u3070
  3357  0756                     u3071:
  3358  0756  2F44               	goto	l3559
  3359  0757                     u3070:
  3360  0757  2F90               	goto	l1492
  3361                           	
  3362  0758                     l1491:	
  3363                           	line	117
  3364  0758  2F90               	goto	l1492
  3365                           	
  3366  0759                     l1484:	
  3367                           	
  3368  0759                     l3563:	
  3369  0759  082F               	movf	(___ftadd@exp1),w
  3370  075A  022E               	subwf	(___ftadd@exp2),w
  3371  075B  1803               	skipnc
  3372  075C  2F5E               	goto	u3081
  3373  075D  2F5F               	goto	u3080
  3374  075E                     u3081:
  3375  075E  2F90               	goto	l1492
  3376  075F                     u3080:
  3377  075F  2F60               	goto	l3565
  3378                           	line	120
  3379                           	
  3380  0760                     l1494:	
  3381                           	line	121
  3382                           	
  3383  0760                     l3565:	
  3384  0760  3001               	movlw	01h
  3385  0761                     u3095:
  3386  0761  1003               	clrc
  3387  0762  0DA3               	rlf	(___ftadd@f1),f
  3388  0763  0DA4               	rlf	(___ftadd@f1+1),f
  3389  0764  0DA5               	rlf	(___ftadd@f1+2),f
  3390  0765  3EFF               	addlw	-1
  3391  0766  1D03               	skipz
  3392  0767  2F61               	goto	u3095
  3393                           	line	122
  3394  0768  3001               	movlw	low(01h)
  3395  0769  02AF               	subwf	(___ftadd@exp1),f
  3396                           	line	123
  3397                           	
  3398  076A                     l3567:	
  3399  076A  082E               	movf	(___ftadd@exp2),w
  3400  076B  062F               	xorwf	(___ftadd@exp1),w
  3401  076C  1903               	skipnz
  3402  076D  2F6F               	goto	u3101
  3403  076E  2F70               	goto	u3100
  3404  076F                     u3101:
  3405  076F  2F88               	goto	l3573
  3406  0770                     u3100:
  3407                           	
  3408  0770                     l3569:	
  3409  0770  3001               	movlw	low(01h)
  3410  0771  02AD               	subwf	(___ftadd@sign),f
  3411  0772  082D               	movf	((___ftadd@sign)),w
  3412  0773  3907               	andlw	07h
  3413  0774  1D03               	btfss	status,2
  3414  0775  2F77               	goto	u3111
  3415  0776  2F78               	goto	u3110
  3416  0777                     u3111:
  3417  0777  2F60               	goto	l3565
  3418  0778                     u3110:
  3419  0778  2F88               	goto	l3573
  3420                           	
  3421  0779                     l1496:	
  3422  0779  2F88               	goto	l3573
  3423                           	
  3424  077A                     l1497:	
  3425                           	line	124
  3426  077A  2F88               	goto	l3573
  3427                           	
  3428  077B                     l1499:	
  3429                           	line	125
  3430                           	
  3431  077B                     l3571:	
  3432  077B  3001               	movlw	01h
  3433  077C                     u3125:
  3434  077C  1003               	clrc
  3435  077D  0CA8               	rrf	(___ftadd@f2+2),f
  3436  077E  0CA7               	rrf	(___ftadd@f2+1),f
  3437  077F  0CA6               	rrf	(___ftadd@f2),f
  3438  0780  3EFF               	addlw	-1
  3439  0781  1D03               	skipz
  3440  0782  2F7C               	goto	u3125
  3441                           
  3442                           	line	126
  3443  0783  3001               	movlw	(01h)
  3444  0784  00A9               	movwf	(??___ftadd+0)+0
  3445  0785  0829               	movf	(??___ftadd+0)+0,w
  3446  0786  07AE               	addwf	(___ftadd@exp2),f
  3447  0787  2F88               	goto	l3573
  3448                           	line	127
  3449                           	
  3450  0788                     l1498:	
  3451                           	line	124
  3452                           	
  3453  0788                     l3573:	
  3454  0788  082F               	movf	(___ftadd@exp1),w
  3455  0789  062E               	xorwf	(___ftadd@exp2),w
  3456  078A  1D03               	skipz
  3457  078B  2F8D               	goto	u3131
  3458  078C  2F8E               	goto	u3130
  3459  078D                     u3131:
  3460  078D  2F7B               	goto	l3571
  3461  078E                     u3130:
  3462  078E  2F90               	goto	l1492
  3463                           	
  3464  078F                     l1500:	
  3465  078F  2F90               	goto	l1492
  3466                           	line	128
  3467                           	
  3468  0790                     l1493:	
  3469                           	line	129
  3470                           	
  3471  0790                     l1492:	
  3472  0790  1FAD               	btfss	(___ftadd@sign),(7)&7
  3473  0791  2F93               	goto	u3141
  3474  0792  2F94               	goto	u3140
  3475  0793                     u3141:
  3476  0793  2FA5               	goto	l3577
  3477  0794                     u3140:
  3478                           	line	131
  3479                           	
  3480  0794                     l3575:	
  3481  0794  30FF               	movlw	0FFh
  3482  0795  06A3               	xorwf	(___ftadd@f1),f
  3483  0796  30FF               	movlw	0FFh
  3484  0797  06A4               	xorwf	(___ftadd@f1+1),f
  3485  0798  30FF               	movlw	0FFh
  3486  0799  06A5               	xorwf	(___ftadd@f1+2),f
  3487                           	line	132
  3488  079A  3001               	movlw	01h
  3489  079B  07A3               	addwf	(___ftadd@f1),f
  3490  079C  3000               	movlw	0
  3491  079D  1803               	skipnc
  3492  079E  3001               movlw 1
  3493  079F  07A4               	addwf	(___ftadd@f1+1),f
  3494  07A0  3000               	movlw	0
  3495  07A1  1803               	skipnc
  3496  07A2  3001               movlw 1
  3497  07A3  07A5               	addwf	(___ftadd@f1+2),f
  3498  07A4  2FA5               	goto	l3577
  3499                           	line	133
  3500                           	
  3501  07A5                     l1501:	
  3502                           	line	134
  3503                           	
  3504  07A5                     l3577:	
  3505  07A5  1F2D               	btfss	(___ftadd@sign),(6)&7
  3506  07A6  2FA8               	goto	u3151
  3507  07A7  2FA9               	goto	u3150
  3508  07A8                     u3151:
  3509  07A8  2FBA               	goto	l3581
  3510  07A9                     u3150:
  3511                           	line	136
  3512                           	
  3513  07A9                     l3579:	
  3514  07A9  30FF               	movlw	0FFh
  3515  07AA  06A6               	xorwf	(___ftadd@f2),f
  3516  07AB  30FF               	movlw	0FFh
  3517  07AC  06A7               	xorwf	(___ftadd@f2+1),f
  3518  07AD  30FF               	movlw	0FFh
  3519  07AE  06A8               	xorwf	(___ftadd@f2+2),f
  3520                           	line	137
  3521  07AF  3001               	movlw	01h
  3522  07B0  07A6               	addwf	(___ftadd@f2),f
  3523  07B1  3000               	movlw	0
  3524  07B2  1803               	skipnc
  3525  07B3  3001               movlw 1
  3526  07B4  07A7               	addwf	(___ftadd@f2+1),f
  3527  07B5  3000               	movlw	0
  3528  07B6  1803               	skipnc
  3529  07B7  3001               movlw 1
  3530  07B8  07A8               	addwf	(___ftadd@f2+2),f
  3531  07B9  2FBA               	goto	l3581
  3532                           	line	138
  3533                           	
  3534  07BA                     l1502:	
  3535                           	line	139
  3536                           	
  3537  07BA                     l3581:	
  3538  07BA  01AD               	clrf	(___ftadd@sign)
  3539                           	line	140
  3540  07BB  0823               	movf	(___ftadd@f1),w
  3541  07BC  07A6               	addwf	(___ftadd@f2),f
  3542  07BD  0824               	movf	(___ftadd@f1+1),w
  3543  07BE  1103               	clrz
  3544  07BF  1803               	skipnc
  3545  07C0  0A24               	incf	(___ftadd@f1+1),w
  3546  07C1  1903               	skipnz
  3547  07C2  2FC4               	goto	u3161
  3548  07C3  07A7               	addwf	(___ftadd@f2+1),f
  3549  07C4                     u3161:
  3550  07C4  0825               	movf	(___ftadd@f1+2),w
  3551  07C5  1103               	clrz
  3552  07C6  1803               	skipnc
  3553  07C7  0A25               	incf	(___ftadd@f1+2),w
  3554  07C8  1903               	skipnz
  3555  07C9  2FCB               	goto	u3162
  3556  07CA  07A8               	addwf	(___ftadd@f2+2),f
  3557  07CB                     u3162:
  3558                           
  3559                           	line	141
  3560                           	
  3561  07CB                     l3583:	
  3562  07CB  1FA8               	btfss	(___ftadd@f2+2),(23)&7
  3563  07CC  2FCE               	goto	u3171
  3564  07CD  2FCF               	goto	u3170
  3565  07CE                     u3171:
  3566  07CE  2FE3               	goto	l3589
  3567  07CF                     u3170:
  3568                           	line	142
  3569                           	
  3570  07CF                     l3585:	
  3571  07CF  30FF               	movlw	0FFh
  3572  07D0  06A6               	xorwf	(___ftadd@f2),f
  3573  07D1  30FF               	movlw	0FFh
  3574  07D2  06A7               	xorwf	(___ftadd@f2+1),f
  3575  07D3  30FF               	movlw	0FFh
  3576  07D4  06A8               	xorwf	(___ftadd@f2+2),f
  3577                           	line	143
  3578  07D5  3001               	movlw	01h
  3579  07D6  07A6               	addwf	(___ftadd@f2),f
  3580  07D7  3000               	movlw	0
  3581  07D8  1803               	skipnc
  3582  07D9  3001               movlw 1
  3583  07DA  07A7               	addwf	(___ftadd@f2+1),f
  3584  07DB  3000               	movlw	0
  3585  07DC  1803               	skipnc
  3586  07DD  3001               movlw 1
  3587  07DE  07A8               	addwf	(___ftadd@f2+2),f
  3588                           	line	144
  3589                           	
  3590  07DF                     l3587:	
  3591  07DF  01AD               	clrf	(___ftadd@sign)
  3592  07E0  1403               	bsf	status,0
  3593  07E1  0DAD               	rlf	(___ftadd@sign),f
  3594  07E2  2FE3               	goto	l3589
  3595                           	line	145
  3596                           	
  3597  07E3                     l1503:	
  3598                           	line	146
  3599                           	
  3600  07E3                     l3589:	
  3601  07E3  0826               	movf	(___ftadd@f2),w
  3602  07E4  00F0               	movwf	(?___ftpack)
  3603  07E5  0827               	movf	(___ftadd@f2+1),w
  3604  07E6  00F1               	movwf	(?___ftpack+1)
  3605  07E7  0828               	movf	(___ftadd@f2+2),w
  3606  07E8  00F2               	movwf	(?___ftpack+2)
  3607  07E9  082F               	movf	(___ftadd@exp1),w
  3608  07EA  00A9               	movwf	(??___ftadd+0)+0
  3609  07EB  0829               	movf	(??___ftadd+0)+0,w
  3610  07EC  00F3               	movwf	0+(?___ftpack)+03h
  3611  07ED  082D               	movf	(___ftadd@sign),w
  3612  07EE  00AA               	movwf	(??___ftadd+1)+0
  3613  07EF  082A               	movf	(??___ftadd+1)+0,w
  3614  07F0  00F4               	movwf	0+(?___ftpack)+04h
  3615  07F1  120A  118A  20B1   	fcall	___ftpack
              120A  118A         
  3616  07F6  0870               	movf	(0+(?___ftpack)),w
  3617  07F7  1283               	bcf	status, 5	;RP0=0, select bank0
  3618  07F8  1303               	bcf	status, 6	;RP1=0, select bank0
  3619  07F9  00A3               	movwf	(?___ftadd)
  3620  07FA  0871               	movf	(1+(?___ftpack)),w
  3621  07FB  00A4               	movwf	(?___ftadd+1)
  3622  07FC  0872               	movf	(2+(?___ftpack)),w
  3623  07FD  00A5               	movwf	(?___ftadd+2)
  3624  07FE  2FFF               	goto	l1478
  3625                           	
  3626  07FF                     l3591:	
  3627                           	line	148
  3628                           	
  3629  07FF                     l1478:	
  3630  07FF  0008               	return
  3631                           	opt stack 0
  3632                           GLOBAL	__end_of___ftadd
  3633  0800                     	__end_of___ftadd:
  3634 ;; =============== function ___ftadd ends ============
  3635                           
  3636                           	signat	___ftadd,8315
  3637                           	global	_lcd_data
  3638                           psect	text435,local,class=CODE,delta=2
  3639                           global __ptext435
  3640  0E2E                     __ptext435:
  3641                           
  3642 ;; *************** function _lcd_data *****************
  3643 ;; Defined at:
  3644 ;;		line 46 in file "C:\Users\Mugi\Desktop\Mugi storage\Program files\Mp Lab Programs\ADC with LM35 and Motor\ADC with L
       M35 and Motor.c"
  3645 ;; Parameters:    Size  Location     Type
  3646 ;;  rec             1    wreg     unsigned char 
  3647 ;; Auto vars:     Size  Location     Type
  3648 ;;  rec             1    2[COMMON] unsigned char 
  3649 ;; Return value:  Size  Location     Type
  3650 ;;		None               void
  3651 ;; Registers used:
  3652 ;;		wreg
  3653 ;; Tracked objects:
  3654 ;;		On entry : 0/0
  3655 ;;		On exit  : 0/0
  3656 ;;		Unchanged: 0/0
  3657 ;; Data sizes:     COMMON   BANK0   BANK1   BANK3   BANK2
  3658 ;;      Params:         0       0       0       0       0
  3659 ;;      Locals:         1       0       0       0       0
  3660 ;;      Temps:          2       0       0       0       0
  3661 ;;      Totals:         3       0       0       0       0
  3662 ;;Total ram usage:        3 bytes
  3663 ;; Hardware stack levels used:    1
  3664 ;; This function calls:
  3665 ;;		Nothing
  3666 ;; This function is called by:
  3667 ;;		_lcd_send
  3668 ;;		_adc_hex
  3669 ;;		_temperature
  3670 ;; This function uses a non-reentrant model
  3671 ;;
  3672                           psect	text435
  3673                           	file	"C:\Users\Mugi\Desktop\Mugi storage\Program files\Mp Lab Programs\ADC with LM35 an
                                 d Motor\ADC with LM35 and Motor.c"
  3674                           	line	46
  3675                           	global	__size_of_lcd_data
  3676  0014                     	__size_of_lcd_data	equ	__end_of_lcd_data-_lcd_data
  3677                           	
  3678  0E2E                     _lcd_data:	
  3679                           	opt	stack 6
  3680                           ; Regs used in _lcd_data: [wreg]
  3681                           ;lcd_data@rec stored from wreg
  3682  0E2E  00F2               	movwf	(lcd_data@rec)
  3683                           	line	47
  3684                           	
  3685  0E2F                     l3515:	
  3686                           ;ADC with LM35 and Motor.c: 47: PORTD = rec;
  3687  0E2F  0872               	movf	(lcd_data@rec),w
  3688  0E30  1283               	bcf	status, 5	;RP0=0, select bank0
  3689  0E31  1303               	bcf	status, 6	;RP1=0, select bank0
  3690  0E32  0088               	movwf	(8)	;volatile
  3691                           	line	48
  3692                           	
  3693  0E33                     l3517:	
  3694                           ;ADC with LM35 and Motor.c: 48: RB1 = 1;
  3695  0E33  1486               	bsf	(49/8),(49)&7
  3696                           	line	49
  3697                           	
  3698  0E34                     l3519:	
  3699                           ;ADC with LM35 and Motor.c: 49: RB2 = 1;
  3700  0E34  1506               	bsf	(50/8),(50)&7
  3701                           	line	50
  3702                           ;ADC with LM35 and Motor.c: 50: _delay((unsigned long)((10)*(20e6/4000.0)));
  3703                           	opt asmopt_off
  3704  0E35  3041               movlw	65
  3705  0E36  00F1               movwf	((??_lcd_data+0)+0+1),f
  3706  0E37  30EE               	movlw	238
  3707  0E38  00F0               movwf	((??_lcd_data+0)+0),f
  3708  0E39                     u3497:
  3709  0E39  0BF0               	decfsz	((??_lcd_data+0)+0),f
  3710  0E3A  2E39               	goto	u3497
  3711  0E3B  0BF1               	decfsz	((??_lcd_data+0)+0+1),f
  3712  0E3C  2E39               	goto	u3497
  3713  0E3D  0064               	clrwdt
  3714                           opt asmopt_on
  3715                           
  3716                           	line	51
  3717                           	
  3718  0E3E                     l3521:	
  3719                           ;ADC with LM35 and Motor.c: 51: RB2 = 0;
  3720  0E3E  1283               	bcf	status, 5	;RP0=0, select bank0
  3721  0E3F  1303               	bcf	status, 6	;RP1=0, select bank0
  3722  0E40  1106               	bcf	(50/8),(50)&7
  3723                           	line	52
  3724                           	
  3725  0E41                     l719:	
  3726  0E41  0008               	return
  3727                           	opt stack 0
  3728                           GLOBAL	__end_of_lcd_data
  3729  0E42                     	__end_of_lcd_data:
  3730 ;; =============== function _lcd_data ends ============
  3731                           
  3732                           	signat	_lcd_data,4216
  3733                           	global	_command
  3734                           psect	text436,local,class=CODE,delta=2
  3735                           global __ptext436
  3736  0E1A                     __ptext436:
  3737                           
  3738 ;; *************** function _command *****************
  3739 ;; Defined at:
  3740 ;;		line 37 in file "C:\Users\Mugi\Desktop\Mugi storage\Program files\Mp Lab Programs\ADC with LM35 and Motor\ADC with L
       M35 and Motor.c"
  3741 ;; Parameters:    Size  Location     Type
  3742 ;;  com             1    wreg     unsigned char 
  3743 ;; Auto vars:     Size  Location     Type
  3744 ;;  com             1    2[COMMON] unsigned char 
  3745 ;; Return value:  Size  Location     Type
  3746 ;;		None               void
  3747 ;; Registers used:
  3748 ;;		wreg
  3749 ;; Tracked objects:
  3750 ;;		On entry : 0/0
  3751 ;;		On exit  : 0/0
  3752 ;;		Unchanged: 0/0
  3753 ;; Data sizes:     COMMON   BANK0   BANK1   BANK3   BANK2
  3754 ;;      Params:         0       0       0       0       0
  3755 ;;      Locals:         1       0       0       0       0
  3756 ;;      Temps:          2       0       0       0       0
  3757 ;;      Totals:         3       0       0       0       0
  3758 ;;Total ram usage:        3 bytes
  3759 ;; Hardware stack levels used:    1
  3760 ;; This function calls:
  3761 ;;		Nothing
  3762 ;; This function is called by:
  3763 ;;		_lcd_init
  3764 ;;		_main
  3765 ;; This function uses a non-reentrant model
  3766 ;;
  3767                           psect	text436
  3768                           	file	"C:\Users\Mugi\Desktop\Mugi storage\Program files\Mp Lab Programs\ADC with LM35 an
                                 d Motor\ADC with LM35 and Motor.c"
  3769                           	line	37
  3770                           	global	__size_of_command
  3771  0014                     	__size_of_command	equ	__end_of_command-_command
  3772                           	
  3773  0E1A                     _command:	
  3774                           	opt	stack 7
  3775                           ; Regs used in _command: [wreg]
  3776                           ;command@com stored from wreg
  3777  0E1A  00F2               	movwf	(command@com)
  3778                           	line	38
  3779                           	
  3780  0E1B                     l3507:	
  3781                           ;ADC with LM35 and Motor.c: 38: PORTD = com;
  3782  0E1B  0872               	movf	(command@com),w
  3783  0E1C  1283               	bcf	status, 5	;RP0=0, select bank0
  3784  0E1D  1303               	bcf	status, 6	;RP1=0, select bank0
  3785  0E1E  0088               	movwf	(8)	;volatile
  3786                           	line	39
  3787                           	
  3788  0E1F                     l3509:	
  3789                           ;ADC with LM35 and Motor.c: 39: RB1 = 0;
  3790  0E1F  1086               	bcf	(49/8),(49)&7
  3791                           	line	40
  3792                           	
  3793  0E20                     l3511:	
  3794                           ;ADC with LM35 and Motor.c: 40: RB2 = 1;
  3795  0E20  1506               	bsf	(50/8),(50)&7
  3796                           	line	41
  3797                           ;ADC with LM35 and Motor.c: 41: _delay((unsigned long)((10)*(20e6/4000.0)));
  3798                           	opt asmopt_off
  3799  0E21  3041               movlw	65
  3800  0E22  00F1               movwf	((??_command+0)+0+1),f
  3801  0E23  30EE               	movlw	238
  3802  0E24  00F0               movwf	((??_command+0)+0),f
  3803  0E25                     u3507:
  3804  0E25  0BF0               	decfsz	((??_command+0)+0),f
  3805  0E26  2E25               	goto	u3507
  3806  0E27  0BF1               	decfsz	((??_command+0)+0+1),f
  3807  0E28  2E25               	goto	u3507
  3808  0E29  0064               	clrwdt
  3809                           opt asmopt_on
  3810                           
  3811                           	line	42
  3812                           	
  3813  0E2A                     l3513:	
  3814                           ;ADC with LM35 and Motor.c: 42: RB2 = 0;
  3815  0E2A  1283               	bcf	status, 5	;RP0=0, select bank0
  3816  0E2B  1303               	bcf	status, 6	;RP1=0, select bank0
  3817  0E2C  1106               	bcf	(50/8),(50)&7
  3818                           	line	43
  3819                           	
  3820  0E2D                     l716:	
  3821  0E2D  0008               	return
  3822                           	opt stack 0
  3823                           GLOBAL	__end_of_command
  3824  0E2E                     	__end_of_command:
  3825 ;; =============== function _command ends ============
  3826                           
  3827                           	signat	_command,4216
  3828                           	global	___awmod
  3829                           psect	text437,local,class=CODE,delta=2
  3830                           global __ptext437
  3831  0F2E                     __ptext437:
  3832                           
  3833 ;; *************** function ___awmod *****************
  3834 ;; Defined at:
  3835 ;;		line 5 in file "C:\Program Files (x86)\HI-TECH Software\PICC\9.82\sources\awmod.c"
  3836 ;; Parameters:    Size  Location     Type
  3837 ;;  divisor         2    0[COMMON] int 
  3838 ;;  dividend        2    2[COMMON] int 
  3839 ;; Auto vars:     Size  Location     Type
  3840 ;;  sign            1    6[COMMON] unsigned char 
  3841 ;;  counter         1    5[COMMON] unsigned char 
  3842 ;; Return value:  Size  Location     Type
  3843 ;;                  2    0[COMMON] int 
  3844 ;; Registers used:
  3845 ;;		wreg, status,2, status,0
  3846 ;; Tracked objects:
  3847 ;;		On entry : 0/0
  3848 ;;		On exit  : 0/0
  3849 ;;		Unchanged: 0/0
  3850 ;; Data sizes:     COMMON   BANK0   BANK1   BANK3   BANK2
  3851 ;;      Params:         4       0       0       0       0
  3852 ;;      Locals:         2       0       0       0       0
  3853 ;;      Temps:          1       0       0       0       0
  3854 ;;      Totals:         7       0       0       0       0
  3855 ;;Total ram usage:        7 bytes
  3856 ;; Hardware stack levels used:    1
  3857 ;; This function calls:
  3858 ;;		Nothing
  3859 ;; This function is called by:
  3860 ;;		_temperature
  3861 ;; This function uses a non-reentrant model
  3862 ;;
  3863                           psect	text437
  3864                           	file	"C:\Program Files (x86)\HI-TECH Software\PICC\9.82\sources\awmod.c"
  3865                           	line	5
  3866                           	global	__size_of___awmod
  3867  0066                     	__size_of___awmod	equ	__end_of___awmod-___awmod
  3868                           	
  3869  0F2E                     ___awmod:	
  3870                           	opt	stack 6
  3871                           ; Regs used in ___awmod: [wreg+status,2+status,0]
  3872                           	line	8
  3873                           	
  3874  0F2E                     l3431:	
  3875  0F2E  01F6               	clrf	(___awmod@sign)
  3876                           	line	9
  3877  0F2F  1FF3               	btfss	(___awmod@dividend+1),7
  3878  0F30  2F32               	goto	u2791
  3879  0F31  2F33               	goto	u2790
  3880  0F32                     u2791:
  3881  0F32  2F3C               	goto	l3435
  3882  0F33                     u2790:
  3883                           	line	10
  3884                           	
  3885  0F33                     l3433:	
  3886  0F33  09F2               	comf	(___awmod@dividend),f
  3887  0F34  09F3               	comf	(___awmod@dividend+1),f
  3888  0F35  0AF2               	incf	(___awmod@dividend),f
  3889  0F36  1903               	skipnz
  3890  0F37  0AF3               	incf	(___awmod@dividend+1),f
  3891                           	line	11
  3892  0F38  01F6               	clrf	(___awmod@sign)
  3893  0F39  1403               	bsf	status,0
  3894  0F3A  0DF6               	rlf	(___awmod@sign),f
  3895  0F3B  2F3C               	goto	l3435
  3896                           	line	12
  3897                           	
  3898  0F3C                     l1639:	
  3899                           	line	13
  3900                           	
  3901  0F3C                     l3435:	
  3902  0F3C  1FF1               	btfss	(___awmod@divisor+1),7
  3903  0F3D  2F3F               	goto	u2801
  3904  0F3E  2F40               	goto	u2800
  3905  0F3F                     u2801:
  3906  0F3F  2F46               	goto	l3439
  3907  0F40                     u2800:
  3908                           	line	14
  3909                           	
  3910  0F40                     l3437:	
  3911  0F40  09F0               	comf	(___awmod@divisor),f
  3912  0F41  09F1               	comf	(___awmod@divisor+1),f
  3913  0F42  0AF0               	incf	(___awmod@divisor),f
  3914  0F43  1903               	skipnz
  3915  0F44  0AF1               	incf	(___awmod@divisor+1),f
  3916  0F45  2F46               	goto	l3439
  3917                           	
  3918  0F46                     l1640:	
  3919                           	line	15
  3920                           	
  3921  0F46                     l3439:	
  3922  0F46  0871               	movf	(___awmod@divisor+1),w
  3923  0F47  0470               	iorwf	(___awmod@divisor),w
  3924  0F48  1903               	skipnz
  3925  0F49  2F4B               	goto	u2811
  3926  0F4A  2F4C               	goto	u2810
  3927  0F4B                     u2811:
  3928  0F4B  2F82               	goto	l3457
  3929  0F4C                     u2810:
  3930                           	line	16
  3931                           	
  3932  0F4C                     l3441:	
  3933  0F4C  01F5               	clrf	(___awmod@counter)
  3934  0F4D  1403               	bsf	status,0
  3935  0F4E  0DF5               	rlf	(___awmod@counter),f
  3936                           	line	17
  3937  0F4F  2F5C               	goto	l3447
  3938                           	
  3939  0F50                     l1643:	
  3940                           	line	18
  3941                           	
  3942  0F50                     l3443:	
  3943  0F50  3001               	movlw	01h
  3944                           	
  3945  0F51                     u2825:
  3946  0F51  1003               	clrc
  3947  0F52  0DF0               	rlf	(___awmod@divisor),f
  3948  0F53  0DF1               	rlf	(___awmod@divisor+1),f
  3949  0F54  3EFF               	addlw	-1
  3950  0F55  1D03               	skipz
  3951  0F56  2F51               	goto	u2825
  3952                           	line	19
  3953                           	
  3954  0F57                     l3445:	
  3955  0F57  3001               	movlw	(01h)
  3956  0F58  00F4               	movwf	(??___awmod+0)+0
  3957  0F59  0874               	movf	(??___awmod+0)+0,w
  3958  0F5A  07F5               	addwf	(___awmod@counter),f
  3959  0F5B  2F5C               	goto	l3447
  3960                           	line	20
  3961                           	
  3962  0F5C                     l1642:	
  3963                           	line	17
  3964                           	
  3965  0F5C                     l3447:	
  3966  0F5C  1FF1               	btfss	(___awmod@divisor+1),(15)&7
  3967  0F5D  2F5F               	goto	u2831
  3968  0F5E  2F60               	goto	u2830
  3969  0F5F                     u2831:
  3970  0F5F  2F50               	goto	l3443
  3971  0F60                     u2830:
  3972  0F60  2F62               	goto	l3449
  3973                           	
  3974  0F61                     l1644:	
  3975  0F61  2F62               	goto	l3449
  3976                           	line	21
  3977                           	
  3978  0F62                     l1645:	
  3979                           	line	22
  3980                           	
  3981  0F62                     l3449:	
  3982  0F62  0871               	movf	(___awmod@divisor+1),w
  3983  0F63  0273               	subwf	(___awmod@dividend+1),w
  3984  0F64  1D03               	skipz
  3985  0F65  2F68               	goto	u2845
  3986  0F66  0870               	movf	(___awmod@divisor),w
  3987  0F67  0272               	subwf	(___awmod@dividend),w
  3988  0F68                     u2845:
  3989  0F68  1C03               	skipc
  3990  0F69  2F6B               	goto	u2841
  3991  0F6A  2F6C               	goto	u2840
  3992  0F6B                     u2841:
  3993  0F6B  2F73               	goto	l3453
  3994  0F6C                     u2840:
  3995                           	line	23
  3996                           	
  3997  0F6C                     l3451:	
  3998  0F6C  0870               	movf	(___awmod@divisor),w
  3999  0F6D  02F2               	subwf	(___awmod@dividend),f
  4000  0F6E  0871               	movf	(___awmod@divisor+1),w
  4001  0F6F  1C03               	skipc
  4002  0F70  03F3               	decf	(___awmod@dividend+1),f
  4003  0F71  02F3               	subwf	(___awmod@dividend+1),f
  4004  0F72  2F73               	goto	l3453
  4005                           	
  4006  0F73                     l1646:	
  4007                           	line	24
  4008                           	
  4009  0F73                     l3453:	
  4010  0F73  3001               	movlw	01h
  4011                           	
  4012  0F74                     u2855:
  4013  0F74  1003               	clrc
  4014  0F75  0CF1               	rrf	(___awmod@divisor+1),f
  4015  0F76  0CF0               	rrf	(___awmod@divisor),f
  4016  0F77  3EFF               	addlw	-1
  4017  0F78  1D03               	skipz
  4018  0F79  2F74               	goto	u2855
  4019                           	line	25
  4020                           	
  4021  0F7A                     l3455:	
  4022  0F7A  3001               	movlw	low(01h)
  4023  0F7B  02F5               	subwf	(___awmod@counter),f
  4024  0F7C  1D03               	btfss	status,2
  4025  0F7D  2F7F               	goto	u2861
  4026  0F7E  2F80               	goto	u2860
  4027  0F7F                     u2861:
  4028  0F7F  2F62               	goto	l3449
  4029  0F80                     u2860:
  4030  0F80  2F82               	goto	l3457
  4031                           	
  4032  0F81                     l1647:	
  4033  0F81  2F82               	goto	l3457
  4034                           	line	26
  4035                           	
  4036  0F82                     l1641:	
  4037                           	line	27
  4038                           	
  4039  0F82                     l3457:	
  4040  0F82  0876               	movf	(___awmod@sign),w
  4041  0F83  1D03               	skipz
  4042  0F84  2F86               	goto	u2870
  4043  0F85  2F8C               	goto	l3461
  4044  0F86                     u2870:
  4045                           	line	28
  4046                           	
  4047  0F86                     l3459:	
  4048  0F86  09F2               	comf	(___awmod@dividend),f
  4049  0F87  09F3               	comf	(___awmod@dividend+1),f
  4050  0F88  0AF2               	incf	(___awmod@dividend),f
  4051  0F89  1903               	skipnz
  4052  0F8A  0AF3               	incf	(___awmod@dividend+1),f
  4053  0F8B  2F8C               	goto	l3461
  4054                           	
  4055  0F8C                     l1648:	
  4056                           	line	29
  4057                           	
  4058  0F8C                     l3461:	
  4059  0F8C  0873               	movf	(___awmod@dividend+1),w
  4060  0F8D  01F1               	clrf	(?___awmod+1)
  4061  0F8E  07F1               	addwf	(?___awmod+1)
  4062  0F8F  0872               	movf	(___awmod@dividend),w
  4063  0F90  01F0               	clrf	(?___awmod)
  4064  0F91  07F0               	addwf	(?___awmod)
  4065                           
  4066  0F92  2F93               	goto	l1649
  4067                           	
  4068  0F93                     l3463:	
  4069                           	line	30
  4070                           	
  4071  0F93                     l1649:	
  4072  0F93  0008               	return
  4073                           	opt stack 0
  4074                           GLOBAL	__end_of___awmod
  4075  0F94                     	__end_of___awmod:
  4076 ;; =============== function ___awmod ends ============
  4077                           
  4078                           	signat	___awmod,8314
  4079                           	global	___ftge
  4080                           psect	text438,local,class=CODE,delta=2
  4081                           global __ptext438
  4082  0F94                     __ptext438:
  4083                           
  4084 ;; *************** function ___ftge *****************
  4085 ;; Defined at:
  4086 ;;		line 5 in file "C:\Program Files (x86)\HI-TECH Software\PICC\9.82\sources\ftge.c"
  4087 ;; Parameters:    Size  Location     Type
  4088 ;;  ff1             3    0[COMMON] float 
  4089 ;;  ff2             3    3[COMMON] float 
  4090 ;; Auto vars:     Size  Location     Type
  4091 ;;		None
  4092 ;; Return value:  Size  Location     Type
  4093 ;;		None               void
  4094 ;; Registers used:
  4095 ;;		wreg, status,2, status,0
  4096 ;; Tracked objects:
  4097 ;;		On entry : 0/0
  4098 ;;		On exit  : 0/0
  4099 ;;		Unchanged: 0/0
  4100 ;; Data sizes:     COMMON   BANK0   BANK1   BANK3   BANK2
  4101 ;;      Params:         6       0       0       0       0
  4102 ;;      Locals:         0       0       0       0       0
  4103 ;;      Temps:          6       0       0       0       0
  4104 ;;      Totals:        12       0       0       0       0
  4105 ;;Total ram usage:       12 bytes
  4106 ;; Hardware stack levels used:    1
  4107 ;; This function calls:
  4108 ;;		Nothing
  4109 ;; This function is called by:
  4110 ;;		_main
  4111 ;; This function uses a non-reentrant model
  4112 ;;
  4113                           psect	text438
  4114                           	file	"C:\Program Files (x86)\HI-TECH Software\PICC\9.82\sources\ftge.c"
  4115                           	line	5
  4116                           	global	__size_of___ftge
  4117  006C                     	__size_of___ftge	equ	__end_of___ftge-___ftge
  4118                           	
  4119  0F94                     ___ftge:	
  4120                           	opt	stack 7
  4121                           ; Regs used in ___ftge: [wreg+status,2+status,0]
  4122                           	line	6
  4123                           	
  4124  0F94                     l3411:	
  4125  0F94  1FF2               	btfss	(___ftge@ff1+2),(23)&7
  4126  0F95  2F97               	goto	u2741
  4127  0F96  2F98               	goto	u2740
  4128  0F97                     u2741:
  4129  0F97  2FBE               	goto	l3415
  4130  0F98                     u2740:
  4131                           	line	7
  4132                           	
  4133  0F98                     l3413:	
  4134  0F98  3000               	movlw	0
  4135  0F99  00F6               	movwf	((??___ftge+0)+0)
  4136  0F9A  3000               	movlw	0
  4137  0F9B  00F7               	movwf	((??___ftge+0)+0+1)
  4138  0F9C  3080               	movlw	080h
  4139  0F9D  00F8               	movwf	((??___ftge+0)+0+2)
  4140  0F9E  0970               	comf	(___ftge@ff1),w
  4141  0F9F  00F9               	movwf	(??___ftge+3)+0
  4142  0FA0  0971               	comf	(___ftge@ff1+1),w
  4143  0FA1  00FA               	movwf	((??___ftge+3)+0+1)
  4144  0FA2  0972               	comf	(___ftge@ff1+2),w
  4145  0FA3  00FB               	movwf	((??___ftge+3)+0+2)
  4146  0FA4  0AF9               	incf	(??___ftge+3)+0,f
  4147  0FA5  1903               	skipnz
  4148  0FA6  0AFA               	incf	((??___ftge+3)+0+1),f
  4149  0FA7  1903               	skipnz
  4150  0FA8  0AFB               	incf	((??___ftge+3)+0+2),f
  4151  0FA9  0879               	movf	0+(??___ftge+3)+0,w
  4152  0FAA  07F6               	addwf	(??___ftge+0)+0,f
  4153  0FAB  087A               	movf	1+(??___ftge+3)+0,w
  4154  0FAC  1803               	skipnc
  4155  0FAD  0F7A               	incfsz	1+(??___ftge+3)+0,w
  4156  0FAE  2FB0               	goto	u2751
  4157  0FAF  2FB1               	goto	u2752
  4158  0FB0                     u2751:
  4159  0FB0  07F7               	addwf	(??___ftge+0)+1,f
  4160                           	
  4161  0FB1                     u2752:
  4162  0FB1  087B               	movf	2+(??___ftge+3)+0,w
  4163  0FB2  1803               	skipnc
  4164  0FB3  0F7B               	incfsz	2+(??___ftge+3)+0,w
  4165  0FB4  2FB6               	goto	u2753
  4166  0FB5  2FB7               	goto	u2754
  4167  0FB6                     u2753:
  4168  0FB6  07F8               	addwf	(??___ftge+0)+2,f
  4169                           	
  4170  0FB7                     u2754:
  4171  0FB7  0876               	movf	0+(??___ftge+0)+0,w
  4172  0FB8  00F0               	movwf	(___ftge@ff1)
  4173  0FB9  0877               	movf	1+(??___ftge+0)+0,w
  4174  0FBA  00F1               	movwf	(___ftge@ff1+1)
  4175  0FBB  0878               	movf	2+(??___ftge+0)+0,w
  4176  0FBC  00F2               	movwf	(___ftge@ff1+2)
  4177  0FBD  2FBE               	goto	l3415
  4178                           	
  4179  0FBE                     l1598:	
  4180                           	line	8
  4181                           	
  4182  0FBE                     l3415:	
  4183  0FBE  1FF5               	btfss	(___ftge@ff2+2),(23)&7
  4184  0FBF  2FC1               	goto	u2761
  4185  0FC0  2FC2               	goto	u2760
  4186  0FC1                     u2761:
  4187  0FC1  2FE8               	goto	l3419
  4188  0FC2                     u2760:
  4189                           	line	9
  4190                           	
  4191  0FC2                     l3417:	
  4192  0FC2  3000               	movlw	0
  4193  0FC3  00F6               	movwf	((??___ftge+0)+0)
  4194  0FC4  3000               	movlw	0
  4195  0FC5  00F7               	movwf	((??___ftge+0)+0+1)
  4196  0FC6  3080               	movlw	080h
  4197  0FC7  00F8               	movwf	((??___ftge+0)+0+2)
  4198  0FC8  0973               	comf	(___ftge@ff2),w
  4199  0FC9  00F9               	movwf	(??___ftge+3)+0
  4200  0FCA  0974               	comf	(___ftge@ff2+1),w
  4201  0FCB  00FA               	movwf	((??___ftge+3)+0+1)
  4202  0FCC  0975               	comf	(___ftge@ff2+2),w
  4203  0FCD  00FB               	movwf	((??___ftge+3)+0+2)
  4204  0FCE  0AF9               	incf	(??___ftge+3)+0,f
  4205  0FCF  1903               	skipnz
  4206  0FD0  0AFA               	incf	((??___ftge+3)+0+1),f
  4207  0FD1  1903               	skipnz
  4208  0FD2  0AFB               	incf	((??___ftge+3)+0+2),f
  4209  0FD3  0879               	movf	0+(??___ftge+3)+0,w
  4210  0FD4  07F6               	addwf	(??___ftge+0)+0,f
  4211  0FD5  087A               	movf	1+(??___ftge+3)+0,w
  4212  0FD6  1803               	skipnc
  4213  0FD7  0F7A               	incfsz	1+(??___ftge+3)+0,w
  4214  0FD8  2FDA               	goto	u2771
  4215  0FD9  2FDB               	goto	u2772
  4216  0FDA                     u2771:
  4217  0FDA  07F7               	addwf	(??___ftge+0)+1,f
  4218                           	
  4219  0FDB                     u2772:
  4220  0FDB  087B               	movf	2+(??___ftge+3)+0,w
  4221  0FDC  1803               	skipnc
  4222  0FDD  0F7B               	incfsz	2+(??___ftge+3)+0,w
  4223  0FDE  2FE0               	goto	u2773
  4224  0FDF  2FE1               	goto	u2774
  4225  0FE0                     u2773:
  4226  0FE0  07F8               	addwf	(??___ftge+0)+2,f
  4227                           	
  4228  0FE1                     u2774:
  4229  0FE1  0876               	movf	0+(??___ftge+0)+0,w
  4230  0FE2  00F3               	movwf	(___ftge@ff2)
  4231  0FE3  0877               	movf	1+(??___ftge+0)+0,w
  4232  0FE4  00F4               	movwf	(___ftge@ff2+1)
  4233  0FE5  0878               	movf	2+(??___ftge+0)+0,w
  4234  0FE6  00F5               	movwf	(___ftge@ff2+2)
  4235  0FE7  2FE8               	goto	l3419
  4236                           	
  4237  0FE8                     l1599:	
  4238                           	line	10
  4239                           	
  4240  0FE8                     l3419:	
  4241  0FE8  3080               	movlw	080h
  4242  0FE9  06F2               	xorwf	(___ftge@ff1+2),f
  4243                           	line	11
  4244                           	
  4245  0FEA                     l3421:	
  4246  0FEA  3080               	movlw	080h
  4247  0FEB  06F5               	xorwf	(___ftge@ff2+2),f
  4248                           	line	12
  4249                           	
  4250  0FEC                     l3423:	
  4251  0FEC  0875               	movf	(___ftge@ff2+2),w
  4252  0FED  0272               	subwf	(___ftge@ff1+2),w
  4253  0FEE  1D03               	skipz
  4254  0FEF  2FF6               	goto	u2785
  4255  0FF0  0874               	movf	(___ftge@ff2+1),w
  4256  0FF1  0271               	subwf	(___ftge@ff1+1),w
  4257  0FF2  1D03               	skipz
  4258  0FF3  2FF6               	goto	u2785
  4259  0FF4  0873               	movf	(___ftge@ff2),w
  4260  0FF5  0270               	subwf	(___ftge@ff1),w
  4261  0FF6                     u2785:
  4262  0FF6  1803               	skipnc
  4263  0FF7  2FF9               	goto	u2781
  4264  0FF8  2FFA               	goto	u2780
  4265  0FF9                     u2781:
  4266  0FF9  2FFC               	goto	l3427
  4267  0FFA                     u2780:
  4268                           	
  4269  0FFA                     l3425:	
  4270  0FFA  1003               	clrc
  4271                           	
  4272  0FFB  2FFF               	goto	l1600
  4273                           	
  4274  0FFC                     l3217:	
  4275                           	
  4276  0FFC                     l3427:	
  4277  0FFC  1403               	setc
  4278                           	
  4279  0FFD  2FFF               	goto	l1600
  4280                           	
  4281  0FFE                     l3219:	
  4282  0FFE  2FFF               	goto	l1600
  4283                           	
  4284  0FFF                     l3429:	
  4285                           	line	13
  4286                           	
  4287  0FFF                     l1600:	
  4288  0FFF  0008               	return
  4289                           	opt stack 0
  4290                           GLOBAL	__end_of___ftge
  4291  1000                     	__end_of___ftge:
  4292 ;; =============== function ___ftge ends ============
  4293                           
  4294                           	signat	___ftge,8312
  4295                           	global	___ftneg
  4296                           psect	text439,local,class=CODE,delta=2
  4297                           global __ptext439
  4298  0E0E                     __ptext439:
  4299                           
  4300 ;; *************** function ___ftneg *****************
  4301 ;; Defined at:
  4302 ;;		line 16 in file "C:\Program Files (x86)\HI-TECH Software\PICC\9.82\sources\ftneg.c"
  4303 ;; Parameters:    Size  Location     Type
  4304 ;;  f1              3    8[COMMON] float 
  4305 ;; Auto vars:     Size  Location     Type
  4306 ;;		None
  4307 ;; Return value:  Size  Location     Type
  4308 ;;                  3    8[COMMON] float 
  4309 ;; Registers used:
  4310 ;;		wreg
  4311 ;; Tracked objects:
  4312 ;;		On entry : 0/0
  4313 ;;		On exit  : 0/0
  4314 ;;		Unchanged: 0/0
  4315 ;; Data sizes:     COMMON   BANK0   BANK1   BANK3   BANK2
  4316 ;;      Params:         3       0       0       0       0
  4317 ;;      Locals:         0       0       0       0       0
  4318 ;;      Temps:          0       0       0       0       0
  4319 ;;      Totals:         3       0       0       0       0
  4320 ;;Total ram usage:        3 bytes
  4321 ;; Hardware stack levels used:    1
  4322 ;; This function calls:
  4323 ;;		Nothing
  4324 ;; This function is called by:
  4325 ;;		_temperature
  4326 ;; This function uses a non-reentrant model
  4327 ;;
  4328                           psect	text439
  4329                           	file	"C:\Program Files (x86)\HI-TECH Software\PICC\9.82\sources\ftneg.c"
  4330                           	line	16
  4331                           	global	__size_of___ftneg
  4332  000C                     	__size_of___ftneg	equ	__end_of___ftneg-___ftneg
  4333                           	
  4334  0E0E                     ___ftneg:	
  4335                           	opt	stack 6
  4336                           ; Regs used in ___ftneg: [wreg]
  4337                           	line	17
  4338                           	
  4339  0E0E                     l3403:	
  4340  0E0E  087A               	movf	(___ftneg@f1+2),w
  4341  0E0F  0479               	iorwf	(___ftneg@f1+1),w
  4342  0E10  0478               	iorwf	(___ftneg@f1),w
  4343  0E11  1903               	skipnz
  4344  0E12  2E14               	goto	u2731
  4345  0E13  2E15               	goto	u2730
  4346  0E14                     u2731:
  4347  0E14  2E18               	goto	l3407
  4348  0E15                     u2730:
  4349                           	line	18
  4350                           	
  4351  0E15                     l3405:	
  4352  0E15  3080               	movlw	080h
  4353  0E16  06FA               	xorwf	(___ftneg@f1+2),f
  4354  0E17  2E18               	goto	l3407
  4355                           	
  4356  0E18                     l1594:	
  4357                           	line	19
  4358                           	
  4359  0E18                     l3407:	
  4360  0E18  2E19               	goto	l1595
  4361                           	
  4362  0E19                     l3409:	
  4363                           	line	20
  4364                           	
  4365  0E19                     l1595:	
  4366  0E19  0008               	return
  4367                           	opt stack 0
  4368                           GLOBAL	__end_of___ftneg
  4369  0E1A                     	__end_of___ftneg:
  4370 ;; =============== function ___ftneg ends ============
  4371                           
  4372                           	signat	___ftneg,4219
  4373                           	global	___awdiv
  4374                           psect	text440,local,class=CODE,delta=2
  4375                           global __ptext440
  4376  003D                     __ptext440:
  4377                           
  4378 ;; *************** function ___awdiv *****************
  4379 ;; Defined at:
  4380 ;;		line 5 in file "C:\Program Files (x86)\HI-TECH Software\PICC\9.82\sources\awdiv.c"
  4381 ;; Parameters:    Size  Location     Type
  4382 ;;  divisor         2    0[COMMON] int 
  4383 ;;  dividend        2    2[COMMON] int 
  4384 ;; Auto vars:     Size  Location     Type
  4385 ;;  quotient        2    7[COMMON] int 
  4386 ;;  sign            1    6[COMMON] unsigned char 
  4387 ;;  counter         1    5[COMMON] unsigned char 
  4388 ;; Return value:  Size  Location     Type
  4389 ;;                  2    0[COMMON] int 
  4390 ;; Registers used:
  4391 ;;		wreg, status,2, status,0
  4392 ;; Tracked objects:
  4393 ;;		On entry : 0/0
  4394 ;;		On exit  : 0/0
  4395 ;;		Unchanged: 0/0
  4396 ;; Data sizes:     COMMON   BANK0   BANK1   BANK3   BANK2
  4397 ;;      Params:         4       0       0       0       0
  4398 ;;      Locals:         4       0       0       0       0
  4399 ;;      Temps:          1       0       0       0       0
  4400 ;;      Totals:         9       0       0       0       0
  4401 ;;Total ram usage:        9 bytes
  4402 ;; Hardware stack levels used:    1
  4403 ;; This function calls:
  4404 ;;		Nothing
  4405 ;; This function is called by:
  4406 ;;		_temperature
  4407 ;; This function uses a non-reentrant model
  4408 ;;
  4409                           psect	text440
  4410                           	file	"C:\Program Files (x86)\HI-TECH Software\PICC\9.82\sources\awdiv.c"
  4411                           	line	5
  4412                           	global	__size_of___awdiv
  4413  0074                     	__size_of___awdiv	equ	__end_of___awdiv-___awdiv
  4414                           	
  4415  003D                     ___awdiv:	
  4416                           	opt	stack 6
  4417                           ; Regs used in ___awdiv: [wreg+status,2+status,0]
  4418                           	line	9
  4419                           	
  4420  003D                     l3363:	
  4421  003D  01F6               	clrf	(___awdiv@sign)
  4422                           	line	10
  4423  003E  1FF1               	btfss	(___awdiv@divisor+1),7
  4424  003F  2841               	goto	u2631
  4425  0040  2842               	goto	u2630
  4426  0041                     u2631:
  4427  0041  284B               	goto	l3367
  4428  0042                     u2630:
  4429                           	line	11
  4430                           	
  4431  0042                     l3365:	
  4432  0042  09F0               	comf	(___awdiv@divisor),f
  4433  0043  09F1               	comf	(___awdiv@divisor+1),f
  4434  0044  0AF0               	incf	(___awdiv@divisor),f
  4435  0045  1903               	skipnz
  4436  0046  0AF1               	incf	(___awdiv@divisor+1),f
  4437                           	line	12
  4438  0047  01F6               	clrf	(___awdiv@sign)
  4439  0048  1403               	bsf	status,0
  4440  0049  0DF6               	rlf	(___awdiv@sign),f
  4441  004A  284B               	goto	l3367
  4442                           	line	13
  4443                           	
  4444  004B                     l1571:	
  4445                           	line	14
  4446                           	
  4447  004B                     l3367:	
  4448  004B  1FF3               	btfss	(___awdiv@dividend+1),7
  4449  004C  284E               	goto	u2641
  4450  004D  284F               	goto	u2640
  4451  004E                     u2641:
  4452  004E  2859               	goto	l3373
  4453  004F                     u2640:
  4454                           	line	15
  4455                           	
  4456  004F                     l3369:	
  4457  004F  09F2               	comf	(___awdiv@dividend),f
  4458  0050  09F3               	comf	(___awdiv@dividend+1),f
  4459  0051  0AF2               	incf	(___awdiv@dividend),f
  4460  0052  1903               	skipnz
  4461  0053  0AF3               	incf	(___awdiv@dividend+1),f
  4462                           	line	16
  4463                           	
  4464  0054                     l3371:	
  4465  0054  3001               	movlw	(01h)
  4466  0055  00F4               	movwf	(??___awdiv+0)+0
  4467  0056  0874               	movf	(??___awdiv+0)+0,w
  4468  0057  06F6               	xorwf	(___awdiv@sign),f
  4469  0058  2859               	goto	l3373
  4470                           	line	17
  4471                           	
  4472  0059                     l1572:	
  4473                           	line	18
  4474                           	
  4475  0059                     l3373:	
  4476  0059  01F7               	clrf	(___awdiv@quotient)
  4477  005A  01F8               	clrf	(___awdiv@quotient+1)
  4478                           	line	19
  4479                           	
  4480  005B                     l3375:	
  4481  005B  0871               	movf	(___awdiv@divisor+1),w
  4482  005C  0470               	iorwf	(___awdiv@divisor),w
  4483  005D  1903               	skipnz
  4484  005E  2860               	goto	u2651
  4485  005F  2861               	goto	u2650
  4486  0060                     u2651:
  4487  0060  289F               	goto	l3395
  4488  0061                     u2650:
  4489                           	line	20
  4490                           	
  4491  0061                     l3377:	
  4492  0061  01F5               	clrf	(___awdiv@counter)
  4493  0062  1403               	bsf	status,0
  4494  0063  0DF5               	rlf	(___awdiv@counter),f
  4495                           	line	21
  4496  0064  2871               	goto	l3383
  4497                           	
  4498  0065                     l1575:	
  4499                           	line	22
  4500                           	
  4501  0065                     l3379:	
  4502  0065  3001               	movlw	01h
  4503                           	
  4504  0066                     u2665:
  4505  0066  1003               	clrc
  4506  0067  0DF0               	rlf	(___awdiv@divisor),f
  4507  0068  0DF1               	rlf	(___awdiv@divisor+1),f
  4508  0069  3EFF               	addlw	-1
  4509  006A  1D03               	skipz
  4510  006B  2866               	goto	u2665
  4511                           	line	23
  4512                           	
  4513  006C                     l3381:	
  4514  006C  3001               	movlw	(01h)
  4515  006D  00F4               	movwf	(??___awdiv+0)+0
  4516  006E  0874               	movf	(??___awdiv+0)+0,w
  4517  006F  07F5               	addwf	(___awdiv@counter),f
  4518  0070  2871               	goto	l3383
  4519                           	line	24
  4520                           	
  4521  0071                     l1574:	
  4522                           	line	21
  4523                           	
  4524  0071                     l3383:	
  4525  0071  1FF1               	btfss	(___awdiv@divisor+1),(15)&7
  4526  0072  2874               	goto	u2671
  4527  0073  2875               	goto	u2670
  4528  0074                     u2671:
  4529  0074  2865               	goto	l3379
  4530  0075                     u2670:
  4531  0075  2877               	goto	l3385
  4532                           	
  4533  0076                     l1576:	
  4534  0076  2877               	goto	l3385
  4535                           	line	25
  4536                           	
  4537  0077                     l1577:	
  4538                           	line	26
  4539                           	
  4540  0077                     l3385:	
  4541  0077  3001               	movlw	01h
  4542                           	
  4543  0078                     u2685:
  4544  0078  1003               	clrc
  4545  0079  0DF7               	rlf	(___awdiv@quotient),f
  4546  007A  0DF8               	rlf	(___awdiv@quotient+1),f
  4547  007B  3EFF               	addlw	-1
  4548  007C  1D03               	skipz
  4549  007D  2878               	goto	u2685
  4550                           	line	27
  4551  007E  0871               	movf	(___awdiv@divisor+1),w
  4552  007F  0273               	subwf	(___awdiv@dividend+1),w
  4553  0080  1D03               	skipz
  4554  0081  2884               	goto	u2695
  4555  0082  0870               	movf	(___awdiv@divisor),w
  4556  0083  0272               	subwf	(___awdiv@dividend),w
  4557  0084                     u2695:
  4558  0084  1C03               	skipc
  4559  0085  2887               	goto	u2691
  4560  0086  2888               	goto	u2690
  4561  0087                     u2691:
  4562  0087  2890               	goto	l3391
  4563  0088                     u2690:
  4564                           	line	28
  4565                           	
  4566  0088                     l3387:	
  4567  0088  0870               	movf	(___awdiv@divisor),w
  4568  0089  02F2               	subwf	(___awdiv@dividend),f
  4569  008A  0871               	movf	(___awdiv@divisor+1),w
  4570  008B  1C03               	skipc
  4571  008C  03F3               	decf	(___awdiv@dividend+1),f
  4572  008D  02F3               	subwf	(___awdiv@dividend+1),f
  4573                           	line	29
  4574                           	
  4575  008E                     l3389:	
  4576  008E  1477               	bsf	(___awdiv@quotient)+(0/8),(0)&7
  4577  008F  2890               	goto	l3391
  4578                           	line	30
  4579                           	
  4580  0090                     l1578:	
  4581                           	line	31
  4582                           	
  4583  0090                     l3391:	
  4584  0090  3001               	movlw	01h
  4585                           	
  4586  0091                     u2705:
  4587  0091  1003               	clrc
  4588  0092  0CF1               	rrf	(___awdiv@divisor+1),f
  4589  0093  0CF0               	rrf	(___awdiv@divisor),f
  4590  0094  3EFF               	addlw	-1
  4591  0095  1D03               	skipz
  4592  0096  2891               	goto	u2705
  4593                           	line	32
  4594                           	
  4595  0097                     l3393:	
  4596  0097  3001               	movlw	low(01h)
  4597  0098  02F5               	subwf	(___awdiv@counter),f
  4598  0099  1D03               	btfss	status,2
  4599  009A  289C               	goto	u2711
  4600  009B  289D               	goto	u2710
  4601  009C                     u2711:
  4602  009C  2877               	goto	l3385
  4603  009D                     u2710:
  4604  009D  289F               	goto	l3395
  4605                           	
  4606  009E                     l1579:	
  4607  009E  289F               	goto	l3395
  4608                           	line	33
  4609                           	
  4610  009F                     l1573:	
  4611                           	line	34
  4612                           	
  4613  009F                     l3395:	
  4614  009F  0876               	movf	(___awdiv@sign),w
  4615  00A0  1D03               	skipz
  4616  00A1  28A3               	goto	u2720
  4617  00A2  28A9               	goto	l3399
  4618  00A3                     u2720:
  4619                           	line	35
  4620                           	
  4621  00A3                     l3397:	
  4622  00A3  09F7               	comf	(___awdiv@quotient),f
  4623  00A4  09F8               	comf	(___awdiv@quotient+1),f
  4624  00A5  0AF7               	incf	(___awdiv@quotient),f
  4625  00A6  1903               	skipnz
  4626  00A7  0AF8               	incf	(___awdiv@quotient+1),f
  4627  00A8  28A9               	goto	l3399
  4628                           	
  4629  00A9                     l1580:	
  4630                           	line	36
  4631                           	
  4632  00A9                     l3399:	
  4633  00A9  0878               	movf	(___awdiv@quotient+1),w
  4634  00AA  01F1               	clrf	(?___awdiv+1)
  4635  00AB  07F1               	addwf	(?___awdiv+1)
  4636  00AC  0877               	movf	(___awdiv@quotient),w
  4637  00AD  01F0               	clrf	(?___awdiv)
  4638  00AE  07F0               	addwf	(?___awdiv)
  4639                           
  4640  00AF  28B0               	goto	l1581
  4641                           	
  4642  00B0                     l3401:	
  4643                           	line	37
  4644                           	
  4645  00B0                     l1581:	
  4646  00B0  0008               	return
  4647                           	opt stack 0
  4648                           GLOBAL	__end_of___awdiv
  4649  00B1                     	__end_of___awdiv:
  4650 ;; =============== function ___awdiv ends ============
  4651                           
  4652                           	signat	___awdiv,8314
  4653                           	global	___fttol
  4654                           psect	text441,local,class=CODE,delta=2
  4655                           global __ptext441
  4656  01B3                     __ptext441:
  4657                           
  4658 ;; *************** function ___fttol *****************
  4659 ;; Defined at:
  4660 ;;		line 45 in file "C:\Program Files (x86)\HI-TECH Software\PICC\9.82\sources\fttol.c"
  4661 ;; Parameters:    Size  Location     Type
  4662 ;;  f1              3    8[COMMON] float 
  4663 ;; Auto vars:     Size  Location     Type
  4664 ;;  lval            4    5[BANK0 ] unsigned long 
  4665 ;;  exp1            1    9[BANK0 ] unsigned char 
  4666 ;;  sign1           1    4[BANK0 ] unsigned char 
  4667 ;; Return value:  Size  Location     Type
  4668 ;;                  4    8[COMMON] long 
  4669 ;; Registers used:
  4670 ;;		wreg, status,2, status,0
  4671 ;; Tracked objects:
  4672 ;;		On entry : 0/0
  4673 ;;		On exit  : 0/0
  4674 ;;		Unchanged: 0/0
  4675 ;; Data sizes:     COMMON   BANK0   BANK1   BANK3   BANK2
  4676 ;;      Params:         4       0       0       0       0
  4677 ;;      Locals:         0       6       0       0       0
  4678 ;;      Temps:          0       4       0       0       0
  4679 ;;      Totals:         4      10       0       0       0
  4680 ;;Total ram usage:       14 bytes
  4681 ;; Hardware stack levels used:    1
  4682 ;; This function calls:
  4683 ;;		Nothing
  4684 ;; This function is called by:
  4685 ;;		_temperature
  4686 ;; This function uses a non-reentrant model
  4687 ;;
  4688                           psect	text441
  4689                           	file	"C:\Program Files (x86)\HI-TECH Software\PICC\9.82\sources\fttol.c"
  4690                           	line	45
  4691                           	global	__size_of___fttol
  4692  00A6                     	__size_of___fttol	equ	__end_of___fttol-___fttol
  4693                           	
  4694  01B3                     ___fttol:	
  4695                           	opt	stack 6
  4696                           ; Regs used in ___fttol: [wreg+status,2+status,0]
  4697                           	line	49
  4698                           	
  4699  01B3                     l3307:	
  4700  01B3  0878               	movf	(___fttol@f1),w
  4701  01B4  1283               	bcf	status, 5	;RP0=0, select bank0
  4702  01B5  1303               	bcf	status, 6	;RP1=0, select bank0
  4703  01B6  00A0               	movwf	((??___fttol+0)+0)
  4704  01B7  0879               	movf	(___fttol@f1+1),w
  4705  01B8  00A1               	movwf	((??___fttol+0)+0+1)
  4706  01B9  087A               	movf	(___fttol@f1+2),w
  4707  01BA  00A2               	movwf	((??___fttol+0)+0+2)
  4708  01BB  1003               	clrc
  4709  01BC  0D21               	rlf	(??___fttol+0)+1,w
  4710  01BD  0D22               	rlf	(??___fttol+0)+2,w
  4711  01BE  00A3               	movwf	(??___fttol+3)+0
  4712  01BF  0823               	movf	(??___fttol+3)+0,w
  4713  01C0  00A9               	movwf	(___fttol@exp1)
  4714  01C1  08A9               	movf	((___fttol@exp1)),f
  4715  01C2  1D03               	skipz
  4716  01C3  29C5               	goto	u2521
  4717  01C4  29C6               	goto	u2520
  4718  01C5                     u2521:
  4719  01C5  29D0               	goto	l3313
  4720  01C6                     u2520:
  4721                           	line	50
  4722                           	
  4723  01C6                     l3309:	
  4724  01C6  3000               	movlw	0
  4725  01C7  00FB               	movwf	(?___fttol+3)
  4726  01C8  3000               	movlw	0
  4727  01C9  00FA               	movwf	(?___fttol+2)
  4728  01CA  3000               	movlw	0
  4729  01CB  00F9               	movwf	(?___fttol+1)
  4730  01CC  3000               	movlw	0
  4731  01CD  00F8               	movwf	(?___fttol)
  4732                           
  4733  01CE  2A58               	goto	l1541
  4734                           	
  4735  01CF                     l3311:	
  4736  01CF  2A58               	goto	l1541
  4737                           	
  4738  01D0                     l1540:	
  4739                           	line	51
  4740                           	
  4741  01D0                     l3313:	
  4742  01D0  0878               	movf	(___fttol@f1),w
  4743  01D1  00A0               	movwf	((??___fttol+0)+0)
  4744  01D2  0879               	movf	(___fttol@f1+1),w
  4745  01D3  00A1               	movwf	((??___fttol+0)+0+1)
  4746  01D4  087A               	movf	(___fttol@f1+2),w
  4747  01D5  00A2               	movwf	((??___fttol+0)+0+2)
  4748  01D6  3017               	movlw	017h
  4749  01D7                     u2535:
  4750  01D7  1003               	clrc
  4751  01D8  0CA2               	rrf	(??___fttol+0)+2,f
  4752  01D9  0CA1               	rrf	(??___fttol+0)+1,f
  4753  01DA  0CA0               	rrf	(??___fttol+0)+0,f
  4754  01DB                     u2530:
  4755  01DB  3EFF               	addlw	-1
  4756  01DC  1D03               	skipz
  4757  01DD  29D7               	goto	u2535
  4758  01DE  0820               	movf	0+(??___fttol+0)+0,w
  4759  01DF  00A3               	movwf	(??___fttol+3)+0
  4760  01E0  0823               	movf	(??___fttol+3)+0,w
  4761  01E1  00A4               	movwf	(___fttol@sign1)
  4762                           	line	52
  4763                           	
  4764  01E2                     l3315:	
  4765  01E2  17F9               	bsf	(___fttol@f1)+(15/8),(15)&7
  4766                           	line	53
  4767                           	
  4768  01E3                     l3317:	
  4769  01E3  30FF               	movlw	0FFh
  4770  01E4  05F8               	andwf	(___fttol@f1),f
  4771  01E5  30FF               	movlw	0FFh
  4772  01E6  05F9               	andwf	(___fttol@f1+1),f
  4773  01E7  3000               	movlw	0
  4774  01E8  05FA               	andwf	(___fttol@f1+2),f
  4775                           	line	54
  4776                           	
  4777  01E9                     l3319:	
  4778  01E9  0878               	movf	(___fttol@f1),w
  4779  01EA  00A5               	movwf	(___fttol@lval)
  4780  01EB  0879               	movf	(___fttol@f1+1),w
  4781  01EC  00A6               	movwf	((___fttol@lval))+1
  4782  01ED  087A               	movf	(___fttol@f1+2),w
  4783  01EE  00A7               	movwf	((___fttol@lval))+2
  4784  01EF  01A8               	clrf	((___fttol@lval))+3
  4785                           	line	55
  4786                           	
  4787  01F0                     l3321:	
  4788  01F0  308E               	movlw	low(08Eh)
  4789  01F1  02A9               	subwf	(___fttol@exp1),f
  4790                           	line	56
  4791                           	
  4792  01F2                     l3323:	
  4793  01F2  1FA9               	btfss	(___fttol@exp1),7
  4794  01F3  29F5               	goto	u2541
  4795  01F4  29F6               	goto	u2540
  4796  01F5                     u2541:
  4797  01F5  2A1B               	goto	l3333
  4798  01F6                     u2540:
  4799                           	line	57
  4800                           	
  4801  01F6                     l3325:	
  4802  01F6  0829               	movf	(___fttol@exp1),w
  4803  01F7  3A80               	xorlw	80h
  4804  01F8  3E8F               	addlw	-((-15)^80h)
  4805  01F9  1803               	skipnc
  4806  01FA  29FC               	goto	u2551
  4807  01FB  29FD               	goto	u2550
  4808  01FC                     u2551:
  4809  01FC  2A08               	goto	l3331
  4810  01FD                     u2550:
  4811                           	line	58
  4812                           	
  4813  01FD                     l3327:	
  4814  01FD  3000               	movlw	0
  4815  01FE  00FB               	movwf	(?___fttol+3)
  4816  01FF  3000               	movlw	0
  4817  0200  00FA               	movwf	(?___fttol+2)
  4818  0201  3000               	movlw	0
  4819  0202  00F9               	movwf	(?___fttol+1)
  4820  0203  3000               	movlw	0
  4821  0204  00F8               	movwf	(?___fttol)
  4822                           
  4823  0205  2A58               	goto	l1541
  4824                           	
  4825  0206                     l3329:	
  4826  0206  2A58               	goto	l1541
  4827                           	
  4828  0207                     l1543:	
  4829  0207  2A08               	goto	l3331
  4830                           	line	59
  4831                           	
  4832  0208                     l1544:	
  4833                           	line	60
  4834                           	
  4835  0208                     l3331:	
  4836  0208  3001               	movlw	01h
  4837  0209                     u2565:
  4838  0209  1003               	clrc
  4839  020A  0CA8               	rrf	(___fttol@lval+3),f
  4840  020B  0CA7               	rrf	(___fttol@lval+2),f
  4841  020C  0CA6               	rrf	(___fttol@lval+1),f
  4842  020D  0CA5               	rrf	(___fttol@lval),f
  4843  020E  3EFF               	addlw	-1
  4844  020F  1D03               	skipz
  4845  0210  2A09               	goto	u2565
  4846                           
  4847                           	line	61
  4848  0211  3001               	movlw	(01h)
  4849  0212  00A0               	movwf	(??___fttol+0)+0
  4850  0213  0820               	movf	(??___fttol+0)+0,w
  4851  0214  07A9               	addwf	(___fttol@exp1),f
  4852  0215  1D03               	btfss	status,2
  4853  0216  2A18               	goto	u2571
  4854  0217  2A19               	goto	u2570
  4855  0218                     u2571:
  4856  0218  2A08               	goto	l3331
  4857  0219                     u2570:
  4858  0219  2A3F               	goto	l3343
  4859                           	
  4860  021A                     l1545:	
  4861                           	line	62
  4862  021A  2A3F               	goto	l3343
  4863                           	
  4864  021B                     l1542:	
  4865                           	line	63
  4866                           	
  4867  021B                     l3333:	
  4868  021B  3018               	movlw	(018h)
  4869  021C  0229               	subwf	(___fttol@exp1),w
  4870  021D  1C03               	skipc
  4871  021E  2A20               	goto	u2581
  4872  021F  2A21               	goto	u2580
  4873  0220                     u2581:
  4874  0220  2A38               	goto	l3341
  4875  0221                     u2580:
  4876                           	line	64
  4877                           	
  4878  0221                     l3335:	
  4879  0221  3000               	movlw	0
  4880  0222  00FB               	movwf	(?___fttol+3)
  4881  0223  3000               	movlw	0
  4882  0224  00FA               	movwf	(?___fttol+2)
  4883  0225  3000               	movlw	0
  4884  0226  00F9               	movwf	(?___fttol+1)
  4885  0227  3000               	movlw	0
  4886  0228  00F8               	movwf	(?___fttol)
  4887                           
  4888  0229  2A58               	goto	l1541
  4889                           	
  4890  022A                     l3337:	
  4891  022A  2A58               	goto	l1541
  4892                           	
  4893  022B                     l1547:	
  4894                           	line	65
  4895  022B  2A38               	goto	l3341
  4896                           	
  4897  022C                     l1549:	
  4898                           	line	66
  4899                           	
  4900  022C                     l3339:	
  4901  022C  3001               	movlw	01h
  4902  022D  00A0               	movwf	(??___fttol+0)+0
  4903  022E                     u2595:
  4904  022E  1003               	clrc
  4905  022F  0DA5               	rlf	(___fttol@lval),f
  4906  0230  0DA6               	rlf	(___fttol@lval+1),f
  4907  0231  0DA7               	rlf	(___fttol@lval+2),f
  4908  0232  0DA8               	rlf	(___fttol@lval+3),f
  4909  0233  0BA0               	decfsz	(??___fttol+0)+0
  4910  0234  2A2E               	goto	u2595
  4911                           	line	67
  4912  0235  3001               	movlw	low(01h)
  4913  0236  02A9               	subwf	(___fttol@exp1),f
  4914  0237  2A38               	goto	l3341
  4915                           	line	68
  4916                           	
  4917  0238                     l1548:	
  4918                           	line	65
  4919                           	
  4920  0238                     l3341:	
  4921  0238  08A9               	movf	(___fttol@exp1),f
  4922  0239  1D03               	skipz
  4923  023A  2A3C               	goto	u2601
  4924  023B  2A3D               	goto	u2600
  4925  023C                     u2601:
  4926  023C  2A2C               	goto	l3339
  4927  023D                     u2600:
  4928  023D  2A3F               	goto	l3343
  4929                           	
  4930  023E                     l1550:	
  4931  023E  2A3F               	goto	l3343
  4932                           	line	69
  4933                           	
  4934  023F                     l1546:	
  4935                           	line	70
  4936                           	
  4937  023F                     l3343:	
  4938  023F  0824               	movf	(___fttol@sign1),w
  4939  0240  1D03               	skipz
  4940  0241  2A43               	goto	u2610
  4941  0242  2A4F               	goto	l3347
  4942  0243                     u2610:
  4943                           	line	71
  4944                           	
  4945  0243                     l3345:	
  4946  0243  09A5               	comf	(___fttol@lval),f
  4947  0244  09A6               	comf	(___fttol@lval+1),f
  4948  0245  09A7               	comf	(___fttol@lval+2),f
  4949  0246  09A8               	comf	(___fttol@lval+3),f
  4950  0247  0AA5               	incf	(___fttol@lval),f
  4951  0248  1903               	skipnz
  4952  0249  0AA6               	incf	(___fttol@lval+1),f
  4953  024A  1903               	skipnz
  4954  024B  0AA7               	incf	(___fttol@lval+2),f
  4955  024C  1903               	skipnz
  4956  024D  0AA8               	incf	(___fttol@lval+3),f
  4957  024E  2A4F               	goto	l3347
  4958                           	
  4959  024F                     l1551:	
  4960                           	line	72
  4961                           	
  4962  024F                     l3347:	
  4963  024F  0828               	movf	(___fttol@lval+3),w
  4964  0250  00FB               	movwf	(?___fttol+3)
  4965  0251  0827               	movf	(___fttol@lval+2),w
  4966  0252  00FA               	movwf	(?___fttol+2)
  4967  0253  0826               	movf	(___fttol@lval+1),w
  4968  0254  00F9               	movwf	(?___fttol+1)
  4969  0255  0825               	movf	(___fttol@lval),w
  4970  0256  00F8               	movwf	(?___fttol)
  4971                           
  4972  0257  2A58               	goto	l1541
  4973                           	
  4974  0258                     l3349:	
  4975                           	line	73
  4976                           	
  4977  0258                     l1541:	
  4978  0258  0008               	return
  4979                           	opt stack 0
  4980                           GLOBAL	__end_of___fttol
  4981  0259                     	__end_of___fttol:
  4982 ;; =============== function ___fttol ends ============
  4983                           
  4984                           	signat	___fttol,4220
  4985                           	global	___ftpack
  4986                           psect	text442,local,class=CODE,delta=2
  4987                           global __ptext442
  4988  00B1                     __ptext442:
  4989                           
  4990 ;; *************** function ___ftpack *****************
  4991 ;; Defined at:
  4992 ;;		line 63 in file "C:\Program Files (x86)\HI-TECH Software\PICC\9.82\sources\float.c"
  4993 ;; Parameters:    Size  Location     Type
  4994 ;;  arg             3    0[COMMON] unsigned um
  4995 ;;  exp             1    3[COMMON] unsigned char 
  4996 ;;  sign            1    4[COMMON] unsigned char 
  4997 ;; Auto vars:     Size  Location     Type
  4998 ;;		None
  4999 ;; Return value:  Size  Location     Type
  5000 ;;                  3    0[COMMON] float 
  5001 ;; Registers used:
  5002 ;;		wreg, status,2, status,0
  5003 ;; Tracked objects:
  5004 ;;		On entry : 0/0
  5005 ;;		On exit  : 0/0
  5006 ;;		Unchanged: 0/0
  5007 ;; Data sizes:     COMMON   BANK0   BANK1   BANK3   BANK2
  5008 ;;      Params:         5       0       0       0       0
  5009 ;;      Locals:         0       0       0       0       0
  5010 ;;      Temps:          3       0       0       0       0
  5011 ;;      Totals:         8       0       0       0       0
  5012 ;;Total ram usage:        8 bytes
  5013 ;; Hardware stack levels used:    1
  5014 ;; This function calls:
  5015 ;;		Nothing
  5016 ;; This function is called by:
  5017 ;;		___ftadd
  5018 ;;		___ftdiv
  5019 ;;		___ftmul
  5020 ;;		___awtoft
  5021 ;;		___lwtoft
  5022 ;;		___lbtoft
  5023 ;;		___abtoft
  5024 ;;		___altoft
  5025 ;;		___lltoft
  5026 ;;		___attoft
  5027 ;;		___lttoft
  5028 ;; This function uses a non-reentrant model
  5029 ;;
  5030                           psect	text442
  5031                           	file	"C:\Program Files (x86)\HI-TECH Software\PICC\9.82\sources\float.c"
  5032                           	line	63
  5033                           	global	__size_of___ftpack
  5034  007B                     	__size_of___ftpack	equ	__end_of___ftpack-___ftpack
  5035                           	
  5036  00B1                     ___ftpack:	
  5037                           	opt	stack 5
  5038                           ; Regs used in ___ftpack: [wreg+status,2+status,0]
  5039                           	line	64
  5040                           	
  5041  00B1                     l3271:	
  5042  00B1  0873               	movf	(___ftpack@exp),w
  5043  00B2  1D03               	skipz
  5044  00B3  28B5               	goto	u2410
  5045  00B4  28BD               	goto	l3275
  5046  00B5                     u2410:
  5047                           	
  5048  00B5                     l3273:	
  5049  00B5  0872               	movf	(___ftpack@arg+2),w
  5050  00B6  0471               	iorwf	(___ftpack@arg+1),w
  5051  00B7  0470               	iorwf	(___ftpack@arg),w
  5052  00B8  1D03               	skipz
  5053  00B9  28BB               	goto	u2421
  5054  00BA  28BC               	goto	u2420
  5055  00BB                     u2421:
  5056  00BB  28D3               	goto	l3281
  5057  00BC                     u2420:
  5058  00BC  28BD               	goto	l3275
  5059                           	
  5060  00BD                     l1765:	
  5061                           	line	65
  5062                           	
  5063  00BD                     l3275:	
  5064  00BD  3000               	movlw	0x0
  5065  00BE  00F0               	movwf	(?___ftpack)
  5066  00BF  3000               	movlw	0x0
  5067  00C0  00F1               	movwf	(?___ftpack+1)
  5068  00C1  3000               	movlw	0x0
  5069  00C2  00F2               	movwf	(?___ftpack+2)
  5070  00C3  292B               	goto	l1766
  5071                           	
  5072  00C4                     l3277:	
  5073  00C4  292B               	goto	l1766
  5074                           	
  5075  00C5                     l1763:	
  5076                           	line	66
  5077  00C5  28D3               	goto	l3281
  5078                           	
  5079  00C6                     l1768:	
  5080                           	line	67
  5081                           	
  5082  00C6                     l3279:	
  5083  00C6  3001               	movlw	(01h)
  5084  00C7  00F5               	movwf	(??___ftpack+0)+0
  5085  00C8  0875               	movf	(??___ftpack+0)+0,w
  5086  00C9  07F3               	addwf	(___ftpack@exp),f
  5087                           	line	68
  5088  00CA  3001               	movlw	01h
  5089  00CB                     u2435:
  5090  00CB  1003               	clrc
  5091  00CC  0CF2               	rrf	(___ftpack@arg+2),f
  5092  00CD  0CF1               	rrf	(___ftpack@arg+1),f
  5093  00CE  0CF0               	rrf	(___ftpack@arg),f
  5094  00CF  3EFF               	addlw	-1
  5095  00D0  1D03               	skipz
  5096  00D1  28CB               	goto	u2435
  5097                           
  5098  00D2  28D3               	goto	l3281
  5099                           	line	69
  5100                           	
  5101  00D3                     l1767:	
  5102                           	line	66
  5103                           	
  5104  00D3                     l3281:	
  5105  00D3  30FE               	movlw	low highword(0FE0000h)
  5106  00D4  0572               	andwf	(___ftpack@arg+2),w
  5107  00D5  1D03               	btfss	status,2
  5108  00D6  28D8               	goto	u2441
  5109  00D7  28D9               	goto	u2440
  5110  00D8                     u2441:
  5111  00D8  28C6               	goto	l3279
  5112  00D9                     u2440:
  5113  00D9  28F1               	goto	l1770
  5114                           	
  5115  00DA                     l1769:	
  5116                           	line	70
  5117  00DA  28F1               	goto	l1770
  5118                           	
  5119  00DB                     l1771:	
  5120                           	line	71
  5121                           	
  5122  00DB                     l3283:	
  5123  00DB  3001               	movlw	(01h)
  5124  00DC  00F5               	movwf	(??___ftpack+0)+0
  5125  00DD  0875               	movf	(??___ftpack+0)+0,w
  5126  00DE  07F3               	addwf	(___ftpack@exp),f
  5127                           	line	72
  5128                           	
  5129  00DF                     l3285:	
  5130  00DF  3001               	movlw	01h
  5131  00E0  07F0               	addwf	(___ftpack@arg),f
  5132  00E1  3000               	movlw	0
  5133  00E2  1803               	skipnc
  5134  00E3  3001               movlw 1
  5135  00E4  07F1               	addwf	(___ftpack@arg+1),f
  5136  00E5  3000               	movlw	0
  5137  00E6  1803               	skipnc
  5138  00E7  3001               movlw 1
  5139  00E8  07F2               	addwf	(___ftpack@arg+2),f
  5140                           	line	73
  5141                           	
  5142  00E9                     l3287:	
  5143  00E9  3001               	movlw	01h
  5144  00EA                     u2455:
  5145  00EA  1003               	clrc
  5146  00EB  0CF2               	rrf	(___ftpack@arg+2),f
  5147  00EC  0CF1               	rrf	(___ftpack@arg+1),f
  5148  00ED  0CF0               	rrf	(___ftpack@arg),f
  5149  00EE  3EFF               	addlw	-1
  5150  00EF  1D03               	skipz
  5151  00F0  28EA               	goto	u2455
  5152                           
  5153                           	line	74
  5154                           	
  5155  00F1                     l1770:	
  5156                           	line	70
  5157  00F1  30FF               	movlw	low highword(0FF0000h)
  5158  00F2  0572               	andwf	(___ftpack@arg+2),w
  5159  00F3  1D03               	btfss	status,2
  5160  00F4  28F6               	goto	u2461
  5161  00F5  28F7               	goto	u2460
  5162  00F6                     u2461:
  5163  00F6  28DB               	goto	l3283
  5164  00F7                     u2460:
  5165  00F7  2904               	goto	l3291
  5166                           	
  5167  00F8                     l1772:	
  5168                           	line	75
  5169  00F8  2904               	goto	l3291
  5170                           	
  5171  00F9                     l1774:	
  5172                           	line	76
  5173                           	
  5174  00F9                     l3289:	
  5175  00F9  3001               	movlw	low(01h)
  5176  00FA  02F3               	subwf	(___ftpack@exp),f
  5177                           	line	77
  5178  00FB  3001               	movlw	01h
  5179  00FC                     u2475:
  5180  00FC  1003               	clrc
  5181  00FD  0DF0               	rlf	(___ftpack@arg),f
  5182  00FE  0DF1               	rlf	(___ftpack@arg+1),f
  5183  00FF  0DF2               	rlf	(___ftpack@arg+2),f
  5184  0100  3EFF               	addlw	-1
  5185  0101  1D03               	skipz
  5186  0102  28FC               	goto	u2475
  5187  0103  2904               	goto	l3291
  5188                           	line	78
  5189                           	
  5190  0104                     l1773:	
  5191                           	line	75
  5192                           	
  5193  0104                     l3291:	
  5194  0104  1FF1               	btfss	(___ftpack@arg+1),(15)&7
  5195  0105  2907               	goto	u2481
  5196  0106  2908               	goto	u2480
  5197  0107                     u2481:
  5198  0107  28F9               	goto	l3289
  5199  0108                     u2480:
  5200                           	
  5201  0108                     l1775:	
  5202                           	line	79
  5203  0108  1873               	btfsc	(___ftpack@exp),(0)&7
  5204  0109  290B               	goto	u2491
  5205  010A  290C               	goto	u2490
  5206  010B                     u2491:
  5207  010B  2912               	goto	l1776
  5208  010C                     u2490:
  5209                           	line	80
  5210                           	
  5211  010C                     l3293:	
  5212  010C  30FF               	movlw	0FFh
  5213  010D  05F0               	andwf	(___ftpack@arg),f
  5214  010E  307F               	movlw	07Fh
  5215  010F  05F1               	andwf	(___ftpack@arg+1),f
  5216  0110  30FF               	movlw	0FFh
  5217  0111  05F2               	andwf	(___ftpack@arg+2),f
  5218                           	
  5219  0112                     l1776:	
  5220                           	line	81
  5221  0112  1003               	clrc
  5222  0113  0CF3               	rrf	(___ftpack@exp),f
  5223                           
  5224                           	line	82
  5225                           	
  5226  0114                     l3295:	
  5227  0114  0873               	movf	(___ftpack@exp),w
  5228  0115  00F5               	movwf	((??___ftpack+0)+0)
  5229  0116  01F6               	clrf	((??___ftpack+0)+0+1)
  5230  0117  01F7               	clrf	((??___ftpack+0)+0+2)
  5231  0118  3010               	movlw	010h
  5232  0119                     u2505:
  5233  0119  1003               	clrc
  5234  011A  0DF5               	rlf	(??___ftpack+0)+0,f
  5235  011B  0DF6               	rlf	(??___ftpack+0)+1,f
  5236  011C  0DF7               	rlf	(??___ftpack+0)+2,f
  5237  011D                     u2500:
  5238  011D  3EFF               	addlw	-1
  5239  011E  1D03               	skipz
  5240  011F  2919               	goto	u2505
  5241  0120  0875               	movf	0+(??___ftpack+0)+0,w
  5242  0121  04F0               	iorwf	(___ftpack@arg),f
  5243  0122  0876               	movf	1+(??___ftpack+0)+0,w
  5244  0123  04F1               	iorwf	(___ftpack@arg+1),f
  5245  0124  0877               	movf	2+(??___ftpack+0)+0,w
  5246  0125  04F2               	iorwf	(___ftpack@arg+2),f
  5247                           	line	83
  5248                           	
  5249  0126                     l3297:	
  5250  0126  0874               	movf	(___ftpack@sign),w
  5251  0127  1D03               	skipz
  5252  0128  292A               	goto	u2510
  5253  0129  292B               	goto	l1777
  5254  012A                     u2510:
  5255                           	line	84
  5256                           	
  5257  012A                     l3299:	
  5258  012A  17F2               	bsf	(___ftpack@arg)+(23/8),(23)&7
  5259                           	
  5260  012B                     l1777:	
  5261                           	line	85
  5262                           	line	86
  5263                           	
  5264  012B                     l1766:	
  5265  012B  0008               	return
  5266                           	opt stack 0
  5267                           GLOBAL	__end_of___ftpack
  5268  012C                     	__end_of___ftpack:
  5269 ;; =============== function ___ftpack ends ============
  5270                           
  5271                           	signat	___ftpack,12411
  5272                           	global	___lwmod
  5273                           psect	text443,local,class=CODE,delta=2
  5274                           global __ptext443
  5275  0E9C                     __ptext443:
  5276                           
  5277 ;; *************** function ___lwmod *****************
  5278 ;; Defined at:
  5279 ;;		line 5 in file "C:\Program Files (x86)\HI-TECH Software\PICC\9.82\sources\lwmod.c"
  5280 ;; Parameters:    Size  Location     Type
  5281 ;;  divisor         2    0[COMMON] unsigned int 
  5282 ;;  dividend        2    2[COMMON] unsigned int 
  5283 ;; Auto vars:     Size  Location     Type
  5284 ;;  counter         1    5[COMMON] unsigned char 
  5285 ;; Return value:  Size  Location     Type
  5286 ;;                  2    0[COMMON] unsigned int 
  5287 ;; Registers used:
  5288 ;;		wreg, status,2, status,0
  5289 ;; Tracked objects:
  5290 ;;		On entry : 0/0
  5291 ;;		On exit  : 0/0
  5292 ;;		Unchanged: 0/0
  5293 ;; Data sizes:     COMMON   BANK0   BANK1   BANK3   BANK2
  5294 ;;      Params:         4       0       0       0       0
  5295 ;;      Locals:         1       0       0       0       0
  5296 ;;      Temps:          1       0       0       0       0
  5297 ;;      Totals:         6       0       0       0       0
  5298 ;;Total ram usage:        6 bytes
  5299 ;; Hardware stack levels used:    1
  5300 ;; This function calls:
  5301 ;;		Nothing
  5302 ;; This function is called by:
  5303 ;;		_adc_hex
  5304 ;; This function uses a non-reentrant model
  5305 ;;
  5306                           psect	text443
  5307                           	file	"C:\Program Files (x86)\HI-TECH Software\PICC\9.82\sources\lwmod.c"
  5308                           	line	5
  5309                           	global	__size_of___lwmod
  5310  0044                     	__size_of___lwmod	equ	__end_of___lwmod-___lwmod
  5311                           	
  5312  0E9C                     ___lwmod:	
  5313                           	opt	stack 6
  5314                           ; Regs used in ___lwmod: [wreg+status,2+status,0]
  5315                           	line	8
  5316                           	
  5317  0E9C                     l3249:	
  5318  0E9C  0871               	movf	(___lwmod@divisor+1),w
  5319  0E9D  0470               	iorwf	(___lwmod@divisor),w
  5320  0E9E  1903               	skipnz
  5321  0E9F  2EA1               	goto	u2351
  5322  0EA0  2EA2               	goto	u2350
  5323  0EA1                     u2351:
  5324  0EA1  2ED8               	goto	l3267
  5325  0EA2                     u2350:
  5326                           	line	9
  5327                           	
  5328  0EA2                     l3251:	
  5329  0EA2  01F5               	clrf	(___lwmod@counter)
  5330  0EA3  1403               	bsf	status,0
  5331  0EA4  0DF5               	rlf	(___lwmod@counter),f
  5332                           	line	10
  5333  0EA5  2EB2               	goto	l3257
  5334                           	
  5335  0EA6                     l1449:	
  5336                           	line	11
  5337                           	
  5338  0EA6                     l3253:	
  5339  0EA6  3001               	movlw	01h
  5340                           	
  5341  0EA7                     u2365:
  5342  0EA7  1003               	clrc
  5343  0EA8  0DF0               	rlf	(___lwmod@divisor),f
  5344  0EA9  0DF1               	rlf	(___lwmod@divisor+1),f
  5345  0EAA  3EFF               	addlw	-1
  5346  0EAB  1D03               	skipz
  5347  0EAC  2EA7               	goto	u2365
  5348                           	line	12
  5349                           	
  5350  0EAD                     l3255:	
  5351  0EAD  3001               	movlw	(01h)
  5352  0EAE  00F4               	movwf	(??___lwmod+0)+0
  5353  0EAF  0874               	movf	(??___lwmod+0)+0,w
  5354  0EB0  07F5               	addwf	(___lwmod@counter),f
  5355  0EB1  2EB2               	goto	l3257
  5356                           	line	13
  5357                           	
  5358  0EB2                     l1448:	
  5359                           	line	10
  5360                           	
  5361  0EB2                     l3257:	
  5362  0EB2  1FF1               	btfss	(___lwmod@divisor+1),(15)&7
  5363  0EB3  2EB5               	goto	u2371
  5364  0EB4  2EB6               	goto	u2370
  5365  0EB5                     u2371:
  5366  0EB5  2EA6               	goto	l3253
  5367  0EB6                     u2370:
  5368  0EB6  2EB8               	goto	l3259
  5369                           	
  5370  0EB7                     l1450:	
  5371  0EB7  2EB8               	goto	l3259
  5372                           	line	14
  5373                           	
  5374  0EB8                     l1451:	
  5375                           	line	15
  5376                           	
  5377  0EB8                     l3259:	
  5378  0EB8  0871               	movf	(___lwmod@divisor+1),w
  5379  0EB9  0273               	subwf	(___lwmod@dividend+1),w
  5380  0EBA  1D03               	skipz
  5381  0EBB  2EBE               	goto	u2385
  5382  0EBC  0870               	movf	(___lwmod@divisor),w
  5383  0EBD  0272               	subwf	(___lwmod@dividend),w
  5384  0EBE                     u2385:
  5385  0EBE  1C03               	skipc
  5386  0EBF  2EC1               	goto	u2381
  5387  0EC0  2EC2               	goto	u2380
  5388  0EC1                     u2381:
  5389  0EC1  2EC9               	goto	l3263
  5390  0EC2                     u2380:
  5391                           	line	16
  5392                           	
  5393  0EC2                     l3261:	
  5394  0EC2  0870               	movf	(___lwmod@divisor),w
  5395  0EC3  02F2               	subwf	(___lwmod@dividend),f
  5396  0EC4  0871               	movf	(___lwmod@divisor+1),w
  5397  0EC5  1C03               	skipc
  5398  0EC6  03F3               	decf	(___lwmod@dividend+1),f
  5399  0EC7  02F3               	subwf	(___lwmod@dividend+1),f
  5400  0EC8  2EC9               	goto	l3263
  5401                           	
  5402  0EC9                     l1452:	
  5403                           	line	17
  5404                           	
  5405  0EC9                     l3263:	
  5406  0EC9  3001               	movlw	01h
  5407                           	
  5408  0ECA                     u2395:
  5409  0ECA  1003               	clrc
  5410  0ECB  0CF1               	rrf	(___lwmod@divisor+1),f
  5411  0ECC  0CF0               	rrf	(___lwmod@divisor),f
  5412  0ECD  3EFF               	addlw	-1
  5413  0ECE  1D03               	skipz
  5414  0ECF  2ECA               	goto	u2395
  5415                           	line	18
  5416                           	
  5417  0ED0                     l3265:	
  5418  0ED0  3001               	movlw	low(01h)
  5419  0ED1  02F5               	subwf	(___lwmod@counter),f
  5420  0ED2  1D03               	btfss	status,2
  5421  0ED3  2ED5               	goto	u2401
  5422  0ED4  2ED6               	goto	u2400
  5423  0ED5                     u2401:
  5424  0ED5  2EB8               	goto	l3259
  5425  0ED6                     u2400:
  5426  0ED6  2ED8               	goto	l3267
  5427                           	
  5428  0ED7                     l1453:	
  5429  0ED7  2ED8               	goto	l3267
  5430                           	line	19
  5431                           	
  5432  0ED8                     l1447:	
  5433                           	line	20
  5434                           	
  5435  0ED8                     l3267:	
  5436  0ED8  0873               	movf	(___lwmod@dividend+1),w
  5437  0ED9  01F1               	clrf	(?___lwmod+1)
  5438  0EDA  07F1               	addwf	(?___lwmod+1)
  5439  0EDB  0872               	movf	(___lwmod@dividend),w
  5440  0EDC  01F0               	clrf	(?___lwmod)
  5441  0EDD  07F0               	addwf	(?___lwmod)
  5442                           
  5443  0EDE  2EDF               	goto	l1454
  5444                           	
  5445  0EDF                     l3269:	
  5446                           	line	21
  5447                           	
  5448  0EDF                     l1454:	
  5449  0EDF  0008               	return
  5450                           	opt stack 0
  5451                           GLOBAL	__end_of___lwmod
  5452  0EE0                     	__end_of___lwmod:
  5453 ;; =============== function ___lwmod ends ============
  5454                           
  5455                           	signat	___lwmod,8314
  5456                           	global	___lwdiv
  5457                           psect	text444,local,class=CODE,delta=2
  5458                           global __ptext444
  5459  0EE0                     __ptext444:
  5460                           
  5461 ;; *************** function ___lwdiv *****************
  5462 ;; Defined at:
  5463 ;;		line 5 in file "C:\Program Files (x86)\HI-TECH Software\PICC\9.82\sources\lwdiv.c"
  5464 ;; Parameters:    Size  Location     Type
  5465 ;;  divisor         2    0[COMMON] unsigned int 
  5466 ;;  dividend        2    2[COMMON] unsigned int 
  5467 ;; Auto vars:     Size  Location     Type
  5468 ;;  quotient        2    5[COMMON] unsigned int 
  5469 ;;  counter         1    7[COMMON] unsigned char 
  5470 ;; Return value:  Size  Location     Type
  5471 ;;                  2    0[COMMON] unsigned int 
  5472 ;; Registers used:
  5473 ;;		wreg, status,2, status,0
  5474 ;; Tracked objects:
  5475 ;;		On entry : 0/0
  5476 ;;		On exit  : 0/0
  5477 ;;		Unchanged: 0/0
  5478 ;; Data sizes:     COMMON   BANK0   BANK1   BANK3   BANK2
  5479 ;;      Params:         4       0       0       0       0
  5480 ;;      Locals:         3       0       0       0       0
  5481 ;;      Temps:          1       0       0       0       0
  5482 ;;      Totals:         8       0       0       0       0
  5483 ;;Total ram usage:        8 bytes
  5484 ;; Hardware stack levels used:    1
  5485 ;; This function calls:
  5486 ;;		Nothing
  5487 ;; This function is called by:
  5488 ;;		_adc_hex
  5489 ;; This function uses a non-reentrant model
  5490 ;;
  5491                           psect	text444
  5492                           	file	"C:\Program Files (x86)\HI-TECH Software\PICC\9.82\sources\lwdiv.c"
  5493                           	line	5
  5494                           	global	__size_of___lwdiv
  5495  004E                     	__size_of___lwdiv	equ	__end_of___lwdiv-___lwdiv
  5496                           	
  5497  0EE0                     ___lwdiv:	
  5498                           	opt	stack 6
  5499                           ; Regs used in ___lwdiv: [wreg+status,2+status,0]
  5500                           	line	9
  5501                           	
  5502  0EE0                     l3223:	
  5503  0EE0  01F5               	clrf	(___lwdiv@quotient)
  5504  0EE1  01F6               	clrf	(___lwdiv@quotient+1)
  5505                           	line	10
  5506                           	
  5507  0EE2                     l3225:	
  5508  0EE2  0871               	movf	(___lwdiv@divisor+1),w
  5509  0EE3  0470               	iorwf	(___lwdiv@divisor),w
  5510  0EE4  1903               	skipnz
  5511  0EE5  2EE7               	goto	u2281
  5512  0EE6  2EE8               	goto	u2280
  5513  0EE7                     u2281:
  5514  0EE7  2F26               	goto	l3245
  5515  0EE8                     u2280:
  5516                           	line	11
  5517                           	
  5518  0EE8                     l3227:	
  5519  0EE8  01F7               	clrf	(___lwdiv@counter)
  5520  0EE9  1403               	bsf	status,0
  5521  0EEA  0DF7               	rlf	(___lwdiv@counter),f
  5522                           	line	12
  5523  0EEB  2EF8               	goto	l3233
  5524                           	
  5525  0EEC                     l1439:	
  5526                           	line	13
  5527                           	
  5528  0EEC                     l3229:	
  5529  0EEC  3001               	movlw	01h
  5530                           	
  5531  0EED                     u2295:
  5532  0EED  1003               	clrc
  5533  0EEE  0DF0               	rlf	(___lwdiv@divisor),f
  5534  0EEF  0DF1               	rlf	(___lwdiv@divisor+1),f
  5535  0EF0  3EFF               	addlw	-1
  5536  0EF1  1D03               	skipz
  5537  0EF2  2EED               	goto	u2295
  5538                           	line	14
  5539                           	
  5540  0EF3                     l3231:	
  5541  0EF3  3001               	movlw	(01h)
  5542  0EF4  00F4               	movwf	(??___lwdiv+0)+0
  5543  0EF5  0874               	movf	(??___lwdiv+0)+0,w
  5544  0EF6  07F7               	addwf	(___lwdiv@counter),f
  5545  0EF7  2EF8               	goto	l3233
  5546                           	line	15
  5547                           	
  5548  0EF8                     l1438:	
  5549                           	line	12
  5550                           	
  5551  0EF8                     l3233:	
  5552  0EF8  1FF1               	btfss	(___lwdiv@divisor+1),(15)&7
  5553  0EF9  2EFB               	goto	u2301
  5554  0EFA  2EFC               	goto	u2300
  5555  0EFB                     u2301:
  5556  0EFB  2EEC               	goto	l3229
  5557  0EFC                     u2300:
  5558  0EFC  2EFE               	goto	l3235
  5559                           	
  5560  0EFD                     l1440:	
  5561  0EFD  2EFE               	goto	l3235
  5562                           	line	16
  5563                           	
  5564  0EFE                     l1441:	
  5565                           	line	17
  5566                           	
  5567  0EFE                     l3235:	
  5568  0EFE  3001               	movlw	01h
  5569                           	
  5570  0EFF                     u2315:
  5571  0EFF  1003               	clrc
  5572  0F00  0DF5               	rlf	(___lwdiv@quotient),f
  5573  0F01  0DF6               	rlf	(___lwdiv@quotient+1),f
  5574  0F02  3EFF               	addlw	-1
  5575  0F03  1D03               	skipz
  5576  0F04  2EFF               	goto	u2315
  5577                           	line	18
  5578  0F05  0871               	movf	(___lwdiv@divisor+1),w
  5579  0F06  0273               	subwf	(___lwdiv@dividend+1),w
  5580  0F07  1D03               	skipz
  5581  0F08  2F0B               	goto	u2325
  5582  0F09  0870               	movf	(___lwdiv@divisor),w
  5583  0F0A  0272               	subwf	(___lwdiv@dividend),w
  5584  0F0B                     u2325:
  5585  0F0B  1C03               	skipc
  5586  0F0C  2F0E               	goto	u2321
  5587  0F0D  2F0F               	goto	u2320
  5588  0F0E                     u2321:
  5589  0F0E  2F17               	goto	l3241
  5590  0F0F                     u2320:
  5591                           	line	19
  5592                           	
  5593  0F0F                     l3237:	
  5594  0F0F  0870               	movf	(___lwdiv@divisor),w
  5595  0F10  02F2               	subwf	(___lwdiv@dividend),f
  5596  0F11  0871               	movf	(___lwdiv@divisor+1),w
  5597  0F12  1C03               	skipc
  5598  0F13  03F3               	decf	(___lwdiv@dividend+1),f
  5599  0F14  02F3               	subwf	(___lwdiv@dividend+1),f
  5600                           	line	20
  5601                           	
  5602  0F15                     l3239:	
  5603  0F15  1475               	bsf	(___lwdiv@quotient)+(0/8),(0)&7
  5604  0F16  2F17               	goto	l3241
  5605                           	line	21
  5606                           	
  5607  0F17                     l1442:	
  5608                           	line	22
  5609                           	
  5610  0F17                     l3241:	
  5611  0F17  3001               	movlw	01h
  5612                           	
  5613  0F18                     u2335:
  5614  0F18  1003               	clrc
  5615  0F19  0CF1               	rrf	(___lwdiv@divisor+1),f
  5616  0F1A  0CF0               	rrf	(___lwdiv@divisor),f
  5617  0F1B  3EFF               	addlw	-1
  5618  0F1C  1D03               	skipz
  5619  0F1D  2F18               	goto	u2335
  5620                           	line	23
  5621                           	
  5622  0F1E                     l3243:	
  5623  0F1E  3001               	movlw	low(01h)
  5624  0F1F  02F7               	subwf	(___lwdiv@counter),f
  5625  0F20  1D03               	btfss	status,2
  5626  0F21  2F23               	goto	u2341
  5627  0F22  2F24               	goto	u2340
  5628  0F23                     u2341:
  5629  0F23  2EFE               	goto	l3235
  5630  0F24                     u2340:
  5631  0F24  2F26               	goto	l3245
  5632                           	
  5633  0F25                     l1443:	
  5634  0F25  2F26               	goto	l3245
  5635                           	line	24
  5636                           	
  5637  0F26                     l1437:	
  5638                           	line	25
  5639                           	
  5640  0F26                     l3245:	
  5641  0F26  0876               	movf	(___lwdiv@quotient+1),w
  5642  0F27  01F1               	clrf	(?___lwdiv+1)
  5643  0F28  07F1               	addwf	(?___lwdiv+1)
  5644  0F29  0875               	movf	(___lwdiv@quotient),w
  5645  0F2A  01F0               	clrf	(?___lwdiv)
  5646  0F2B  07F0               	addwf	(?___lwdiv)
  5647                           
  5648  0F2C  2F2D               	goto	l1444
  5649                           	
  5650  0F2D                     l3247:	
  5651                           	line	26
  5652                           	
  5653  0F2D                     l1444:	
  5654  0F2D  0008               	return
  5655                           	opt stack 0
  5656                           GLOBAL	__end_of___lwdiv
  5657  0F2E                     	__end_of___lwdiv:
  5658 ;; =============== function ___lwdiv ends ============
  5659                           
  5660                           	signat	___lwdiv,8314
  5661                           	global	_adc_init
  5662                           psect	text445,local,class=CODE,delta=2
  5663                           global __ptext445
  5664  0E01                     __ptext445:
  5665                           
  5666 ;; *************** function _adc_init *****************
  5667 ;; Defined at:
  5668 ;;		line 64 in file "C:\Users\Mugi\Desktop\Mugi storage\Program files\Mp Lab Programs\ADC with LM35 and Motor\ADC with L
       M35 and Motor.c"
  5669 ;; Parameters:    Size  Location     Type
  5670 ;;		None
  5671 ;; Auto vars:     Size  Location     Type
  5672 ;;		None
  5673 ;; Return value:  Size  Location     Type
  5674 ;;		None               void
  5675 ;; Registers used:
  5676 ;;		wreg
  5677 ;; Tracked objects:
  5678 ;;		On entry : 0/0
  5679 ;;		On exit  : 0/0
  5680 ;;		Unchanged: 0/0
  5681 ;; Data sizes:     COMMON   BANK0   BANK1   BANK3   BANK2
  5682 ;;      Params:         0       0       0       0       0
  5683 ;;      Locals:         0       0       0       0       0
  5684 ;;      Temps:          0       0       0       0       0
  5685 ;;      Totals:         0       0       0       0       0
  5686 ;;Total ram usage:        0 bytes
  5687 ;; Hardware stack levels used:    1
  5688 ;; This function calls:
  5689 ;;		Nothing
  5690 ;; This function is called by:
  5691 ;;		_main
  5692 ;; This function uses a non-reentrant model
  5693 ;;
  5694                           psect	text445
  5695                           	file	"C:\Users\Mugi\Desktop\Mugi storage\Program files\Mp Lab Programs\ADC with LM35 an
                                 d Motor\ADC with LM35 and Motor.c"
  5696                           	line	64
  5697                           	global	__size_of_adc_init
  5698  0005                     	__size_of_adc_init	equ	__end_of_adc_init-_adc_init
  5699                           	
  5700  0E01                     _adc_init:	
  5701                           	opt	stack 7
  5702                           ; Regs used in _adc_init: [wreg]
  5703                           	line	65
  5704                           	
  5705  0E01                     l3221:	
  5706                           ;ADC with LM35 and Motor.c: 65: ADCON1 = 0x80;
  5707  0E01  3080               	movlw	(080h)
  5708  0E02  1683               	bsf	status, 5	;RP0=1, select bank1
  5709  0E03  1303               	bcf	status, 6	;RP1=0, select bank1
  5710  0E04  009F               	movwf	(159)^080h	;volatile
  5711                           	line	66
  5712                           	
  5713  0E05                     l728:	
  5714  0E05  0008               	return
  5715                           	opt stack 0
  5716                           GLOBAL	__end_of_adc_init
  5717  0E06                     	__end_of_adc_init:
  5718 ;; =============== function _adc_init ends ============
  5719                           
  5720                           	signat	_adc_init,88
  5721                           psect	text446,local,class=CODE,delta=2
  5722                           global __ptext446
  5723  0000                     __ptext446:
  5724                           	global	btemp
  5725  007E                     	btemp set 07Eh
  5726                           
  5727                           	DABS	1,126,2	;btemp
  5728                           	global	wtemp0
  5729  007E                     	wtemp0 set btemp


HI-TECH Software PICC Macro Assembler V9.82 build 9453 
Symbol Table                                                                                   Tue Aug 24 18:46:30 2021

          lcd_data@rec 0072                      _a 0058                      _b 005A                      _f 004C  
                    _h 005C                      _o 0060                      _t 0062                      pc 0002  
                   _RD 0C60                     _WR 0C61           ___awdiv@sign 0076                     _hr 005E  
                   _th 0064                     fsr 0004           ___ftadd@exp1 002F           ___ftadd@exp2 002E  
         ___ftadd@sign 002D                    l713 0E71                    l722 002F                    l723 0015  
                  l731 01B2                    l716 0E2D                    l724 003C                    l725 003C  
                  l734 0305                    l742 03EC                    l719 0E41                    l743 044A  
                  l728 0E05                    l744 0485                    l745 04AC                    l746 04AD  
                  l739 06B9                    l747 04AE                    l748 04AE                    _GIE 005F  
                  _RB1 0031                    _RB2 0032                    _RB4 0034                    _val 0068  
                  _thr 0066                    fsr0 0004                    indf 0000           ___awmod@sign 0076  
         ___ftdiv@cntr 0044           ___ftdiv@sign 0049                   l1500 078F                   l1501 07A5  
                 l1502 07BA                   l1503 07E3                   l1440 0EFD                   l1600 0FFF  
                 l1520 03CD                   l1441 0EFE                   l1521 033A                   l1442 0F17  
                 l1450 0EB7                   l1522 0380                   l1530 059E                   l1443 0F25  
                 l1451 0EB8                   l1523 03A2                   l1531 04E5                   l1444 0F2D  
                 l1452 0EC9                   l1540 01D0                   l1524 03B1                   l1532 0525  
                 l3221 0E01                   l1437 0F26                   l1453 0ED7                   l1541 0258  
                 l1533 053A                   l1438 0EF8                   l1454 0EDF                   l1550 023E  
                 l1542 021B                   l1534 0551                   l3231 0EF3                   l1439 0EEC  
                 l3223 0EE0                   l1447 0ED8                   l1551 024F                   l1543 0207  
                 l3311 01CF                   l1519 0321                   l1535 0556                   l1448 0EB2  
                 l1544 0208                   l1640 0F46                   l1536 056B                   l3241 0F17  
                 l3233 0EF8                   l3225 0EE2                   l1449 0EA6                   l1545 021A  
                 l3321 01F0                   l3313 01D0                   l3401 00B0                   l3217 0FFC  
                 l1641 0F82                   l1481 0705                   l1537 0582                   l1529 04CC  
                 l1546 023F                   l1642 0F5C                   l1490 0744                   l1482 070F  
                 l3243 0F1E                   l3235 0EFE                   l3227 0EE8                   l3251 0EA2  
                 l1547 022B                   l3331 0208                   l3323 01F2                   l3315 01E2  
                 l3307 01B3                   l1571 004B                   l3403 0E0E                   l3219 0FFE  
                 l3411 0F94                   l1643 0F50                   l1491 0758                   l1483 0714  
                 l1475 06F1                   l1548 0238                   l1580 00A9                   l1572 0059  
                 l1644 0F61                   l1484 0759                   l1492 0790                   l3237 0F0F  
                 l3229 0EEC                   l3245 0F26                   l3261 0EC2                   l3253 0EA6  
                 l1549 022C                   l3341 0238                   l3325 01F6                   l3333 021B  
                 l3317 01E3                   l3309 01C6                   l1581 00B0                   l1573 009F  
                 l3405 0E15                   l3421 0FEA                   l3413 0F98                   l1645 0F62  
                 l1493 0790                   l1485 0729                   l1477 06E9                   l1574 0071  
                 l1646 0F73                   l1494 0760                   l1478 07FF                   l1654 0E58  
                 l3247 0F2D                   l3239 0F15                   l3263 0EC9                   l3255 0EAD  
                 l3271 00B1                   l3335 0221                   l3343 023F                   l3327 01FD  
                 l3319 01E9                   l1575 0065                   l3407 0E18                   l3423 0FEC  
                 l3415 0FBE                   l1647 0F81                   l1639 0F3C                   l3431 0F2E  
                 l3511 0E20                   l1487 0742                   l1479 0706                   l1567 0E82  
                 l1576 0076                   l1648 0F8C                   l1496 0779                   l1488 0743  
                 l1568 0E9B                   l3265 0ED0                   l3257 0EB2                   l3249 0E9C  
                 l3281 00D3                   l3273 00B5                   l3345 0243                   l3337 022A  
                 l3329 0206                   l1577 0077                   l3409 0E19                   l3425 0FFA  
                 l3417 0FC2                   l1649 0F93                   l3441 0F4C                   l3433 0F33  
                 l3513 0E2A                   l3521 0E3E                   l1497 077A                   l1489 0751  
                 l3601 0332                   l1770 00F1                   l1578 0090                   l1594 0E18  
                 l1498 0788                   l3259 0EB8                   l3267 0ED8                   l3291 0104  
                 l3283 00DB                   l1771 00DB                   l1763 00C5                   l3275 00BD  
                 l3347 024F                   l3339 022C                   l1579 009E                   l3371 0054  
                 l3363 003D                   l1595 0E19                   l3427 0FFC                   l3419 0FE8  
                 l3451 0F6C                   l3443 0F50                   l3435 0F3C                   l3507 0E1B  
                 l3515 0E2F                   l1499 077B                   l3531 06E9                   l3523 06BA  
                 l3611 0357                   l3603 0339                   l1772 00F8                   l3269 0EDF  
                 l3293 010C                   l1773 0104                   l3285 00DF                   l3277 00C4  
                 l1765 00BD                   l3349 0258                   l3381 006C                   l3373 0059  
                 l3365 0042                   l3429 0FFF                   l3461 0F8C                   l3453 0F73  
                 l3445 0F57                   l3437 0F40                   l3509 0E1F                   l3517 0E33  
                 l3541 0706                   l3533 06F0                   l3525 06D4                   l3621 0388  
                 l3613 0369                   l3605 033A                   l3701 0015                   l1774 00F9  
                 l1766 012B                   l1598 0FBE                   l3295 0114                   l1775 0108  
                 l3287 00E9                   l1767 00D3                   l3279 00C6                   l3391 0090  
                 l3383 0071                   l3375 005B                   l3367 004B                   l1599 0FE8  
                 l3463 0F93                   l3455 0F7A                   l3447 0F5C                   l3439 0F46  
                 l3519 0E34                   l3551 071B                   l3543 070A                   l3535 06F1  
                 l3527 06D8                   l3631 03B1                   l3623 0396                   l3615 036D  
                 l3607 0340                   l3703 0021                   l3711 0152                   l1776 0112  
                 l1768 00C6                   l1777 012B                   l3297 0126                   l3289 00F9  
                 l1769 00DA                   l3393 0097                   l3385 0077                   l3377 0061  
                 l3369 004F                   l3449 0F62                   l3457 0F82                   l3561 0751  
                 l3553 0729                   l3545 070E                   l3537 06F5                   l3529 06DE  
                 l3633 03CD                   l3625 03A0                   l3617 0374                   l3609 0345  
                 l3641 04CC                   l3705 0025                   l3713 015A                   l3721 059F  
                 l3299 012A                   l3387 0088                   l3379 0065                   l3395 009F  
                 l3459 0F86                   l3571 077B                   l3555 0733                   l3563 0759  
                 l3547 0713                   l3539 06FB                   l3627 03A2                   l3619 0380  
                 l3651 0513                   l3643 04DD                   l3635 04B1                   l3707 002F  
                 l3715 016D                   l3731 03DB                   l3723 03CE                   l3397 00A3  
                 l3389 008E                   l3581 07BA                   l3573 0788                   l3565 0760  
                 l3557 0739                   l3549 0715                   l3629 03AA                   l3661 0529  
                 l3653 0514                   l3645 04E4                   l3637 04C4                   l3717 0199  
                 l3709 012C                   l3741 03F1                   l3733 03DE                   l3725 03D2  
                 l3399 00A9                   l3591 07FF                   l3583 07CB                   l3575 0794  
                 l3567 076A                   l3559 0744                   l3671 0556                   l3663 053A  
                 l3655 051A                   l3647 04E5                   l3639 04CB                   l3719 0259  
                 l3751 0422                   l3743 03F7                   l3735 03E1                   l3727 03D5  
                 l3585 07CF                   l3577 07A5                   l3569 0770                   l3593 0306  
                 l3681 0582                   l3673 055A                   l3665 0542                   l3657 0520  
                 l3649 0512                   l3761 044A                   l3753 0425                   l3745 0404  
                 l3737 03E6                   l3729 03D8                   l3587 07DF                   l3579 07A9  
                 l3595 0319                   l3683 059E                   l3675 056B                   l3667 054A  
                 l3659 0525                   l3691 0E9B                   l3771 049C                   l3763 0461  
                 l3755 043A                   l3747 040A                   l3739 03EC                   l3589 07E3  
                 l3597 0320                   l3677 0573                   l3669 0551                   l3685 0E72  
                 l3693 0E42                   l3773 049F                   l3765 0478                   l3757 043D  
                 l3749 0417                   l3599 0321                   l3679 057B                   l3687 0E79  
                 l3695 0E58                   l3775 04A5                   l3767 047E                   l3759 0443  
                 l3689 0E82                   l3697 0E59                   l3769 0485                   l3699 0014  
                 STR_1 0819                   STR_2 0806                   STR_3 082A                   u3000 070E  
                 u3001 070D                   u3010 0713                   u3011 0712                   u2300 0EFC  
                 u3100 0770                   u3020 0728                   u2301 0EFB                   u3101 076F  
                 u3021 0727                   u3110 0778                   u3111 0777                   u2320 0F0F  
                 u2400 0ED6                   u3040 0739                   u3200 0350                   u2321 0F0E  
                 u2401 0ED5                   u3041 0738                   u2410 00B5                   u3130 078E  
                 u3050 0741                   u3210 0362                   u2315 0EFF                   u3131 078D  
                 u3051 0740                   u3035 072A                   u2340 0F24                   u2500 011D  
                 u2420 00BC                   u3140 0794                   u3300 0529                   u2341 0F23  
                 u2325 0F0B                   u2421 00BB                   u3141 0793                   u3125 077C  
                 u3205 034C                   u3301 0528                   u2350 0EA2                   u2510 012A  
                 u3150 07A9                   u3070 0757                   u3230 0396                   u2335 0F18  
                 u2351 0EA1                   u3151 07A8                   u3071 0756                   u3231 0395  
                 u3215 035E                   u3311 0532                   u2280 0EE8                   u2440 00D9  
                 u2600 023D                   u2520 01C6                   u3080 075F                   u3312 0539  
                 u3400 0E79                   u2281 0EE7                   u2505 0119                   u2441 00D8  
                 u2601 023C                   u2521 01C5                   u3161 07C4                   u3081 075E  
                 u3065 0745                   u3225 0381                   u3401 0E78                   u2370 0EB6  
                 u2610 0243                   u2530 01DB                   u3170 07CF                   u3162 07CB  
                 u3250 03B0                   u3410 003B                   u2371 0EB5                   u2435 00CB  
                 u3171 07CE                   u3251 03AF                   u3235 0392                   u3411 003A  
                 u2380 0EC2                   u2460 00F7                   u2540 01F6                   u3180 0319  
                 u3340 0550                   u3260 04C4                   u3420 043A                   u2381 0EC1  
                 u2365 0EA7                   u2461 00F6                   u2541 01F5                   u3245 03A3  
                 u3181 0318                   u3341 054F                   u3325 053B                   u3261 04C3  
                 u3421 0439                   u2550 01FD                   u2710 009D                   u2630 0042  
                 u3190 0332                   u3350 055A                   u3270 04DD                   u3430 0461  
                 u2295 0EED                   u2455 00EA                   u2551 01FC                   u2535 01D7  
                 u2711 009C                   u2631 0041                   u3095 0761                   u3191 0331  
                 u3351 0559                   u3335 0543                   u3271 04DC                   u3431 0460  
                 u2480 0108                   u2720 00A3                   u2640 004F                   u2800 0F40  
                 u3280 04F5                   u3440 0478                   u2385 0EBE                   u2481 0107  
                 u2705 0091                   u2641 004E                   u2801 0F3F                   u3361 0563  
                 u3441 0477                   u2490 010C                   u2570 0219                   u2650 0061  
                 u2730 0E15                   u2810 0F4C                   u3362 056A                   u3290 0507  
                 u3450 049C                   u2395 0ECA                   u2491 010B                   u2475 00FC  
                 u2571 0218                   u2651 0060                   u2731 0E14                   u2811 0F4B  
                 u3507 0E25                   u3451 049B                   u2580 0221                   u2740 0F98  
                 u2581 0220                   u2565 0209                   u2741 0F97                   u3285 04F1  
                 u2670 0075                   u2830 0F60                   u3390 0581                   u2671 0074  
                 u2751 0FB0                   u2831 0F5F                   u3391 0580                   u3375 056C  
                 u3295 0503                   u2760 0FC2                   u2752 0FB1                   u2840 0F6C  
                 u2665 0066                   u2761 0FC1                   u2753 0FB6                   u2841 0F6B  
                 u2825 0F51                   u3385 0574                   u2690 0088                   u2754 0FB7  
                 u2595 022E                   u2691 0087                   u2771 0FDA                   u3467 041D  
                 u2780 0FFA                   u2772 0FDB                   u2860 0F80                   u2940 06D8  
                 u2685 0078                   u2781 0FF9                   u2773 0FE0                   u2861 0F7F  
                 u2845 0F68                   u3477 0134                   u2774 0FE1                   u2870 0F86  
                 u2790 0F33                   u2950 06DE                   u2695 0084                   u2855 0F74  
                 u2791 0F32                   u2951 06DD                   u3487 0029                   u2960 06E8  
                 u2785 0FF6                   u3497 0E39                   u2961 06E7                   u2970 06F5  
                 u2980 06FB                   u2981 06FA                   u2990 0705                   u2991 0704  
                 _WREN 0C62                   _main 03CE           ___ftpack@arg 0070           ___ftpack@exp 0073  
                 btemp 007E                   _volt 0052                   start 0000           ___ftmul@cntr 0038  
         ___ftmul@sign 0039           ___fttol@exp1 0029           ___fttol@lval 0025           lcd_send@word 0075  
                ?_main 0070        __end_of___awdiv 00B1                  _EEADR 010D        __end_of___ftadd 0800  
      __end_of___awmod 0F94                  _CARRY 0018        __end_of___ftdiv 03CE        __end_of___ftneg 0E1A  
      __end_of___ftmul 059F        ___awdiv@divisor 0070        __end_of___fttol 0259        __end_of_adc_hex 0306  
      __end_of___lwdiv 0F2E        __end_of___lwmod 0EE0        ___awdiv@counter 0075                  _PORTA 0005  
                _PORTB 0006                  _PORTD 0008                  _TRISA 0085                  _TRISB 0086  
                _TRISD 0088        __end_of_command 0E2E          ___awtoft@sign 0022          ___ftpack@sign 0074  
                _tempr 004F                  pclath 000A                  status 0003                  wtemp0 007E  
         __end_of_main 04B1                 ??_main 004A          ___fttol@sign1 0024                 _ADCON0 001F  
               _ADCON1 009F                 _ADRESH 001E                 _ADRESL 009E                 _EEDATA 010C  
               _EECON1 018C                 _EECON2 018D       ___awdiv@dividend 0072       __end_of___awtoft 0E9C  
     __end_of___ftpack 012C       __end_of_adc_init 0E06       __end_of___lwtoft 0E59       __end_of_lcd_data 0E42  
     __end_of_lcd_init 0E72       __end_of_lcd_send 003D                 ___ftge 0F94              ??___awdiv 0074  
            ??___ftadd 0029              ??___awmod 0074              ??___ftdiv 0040              ??___ftneg 007B  
            ??___ftmul 0030              ??___fttol 0020              ??_adc_hex 007A              ??___lwdiv 0074  
            ??___lwmod 0074       ___awdiv@quotient 0077        ___awmod@divisor 0070        ___awmod@counter 0075  
               clrloop 0E07              ??_command 0070           ?_temperature 003A  ___ftmul@f3_as_product 0035  
           ___ftadd@f1 0023             ___ftadd@f2 0026             ___ftge@ff1 0070             ___ftge@ff2 0073  
   __size_of_adc_value 0087             ___ftdiv@f1 003D             ___ftdiv@f2 003A             ___ftdiv@f3 0045  
           ___ftneg@f1 0078             ___awtoft@c 007B             ___ftmul@f1 002A             ___ftmul@f2 002D  
           ___fttol@f1 0078         __pcstackCOMMON 0070             ___lwtoft@c 0078             __pbssBANK0 004C  
           adc_hex@val 0078             __pmaintext 03CE                ?___ftge 0070              ?___awtoft 007B  
            ?___ftpack 0070              ?_adc_init 0070              ?___lwtoft 0078      __end_of_adc_value 01B3  
            ?_lcd_data 0070              ?_lcd_init 0070              ?_lcd_send 0070        __size_of___ftge 006C  
              ___awdiv 003D                ___ftadd 06BA                ___awmod 0F2E                ___ftdiv 0306  
              ___ftneg 0E0E                ___ftmul 04B1                ___fttol 01B3                _adc_hex 0259  
              ___lwdiv 0EE0                ___lwmod 0E9C             ??___awtoft 0020             ??___ftpack 0075  
           ??_adc_init 0070                _command 0E1A             ??___lwtoft 007B       ___awmod@dividend 0072  
 __size_of_temperature 011B             ??_lcd_data 0070             ??_lcd_init 0073             ??_lcd_send 0073  
 end_of_initialization 000F             command@com 0072            ___ftdiv@exp 0048            ___ftmul@exp 0034  
       __end_of___ftge 1000    start_initialization 0006               ??___ftge 0076      __size_of___awtoft 002A  
    __size_of___ftpack 007B      __size_of_adc_init 0005      __size_of___lwtoft 0017          __pcstackBANK0 0020  
            _adc_value 012C      __size_of_lcd_data 0014      __size_of_lcd_init 0019      __size_of_lcd_send 002A  
      temperature@temp 0045       ___lwdiv@dividend 0072               ?___awdiv 0070               ?___ftadd 0023  
            __ptext430 0E42              __ptext431 0E72              __ptext440 003D              __ptext432 04B1  
            __ptext424 0000              __ptext441 01B3              __ptext433 0306              __ptext425 059F  
            __ptext442 00B1              __ptext434 06BA              __ptext426 0259              __ptext443 0E9C  
            __ptext435 0E2E              __ptext427 012C               ?___awmod 0070              __ptext444 0EE0  
            __ptext436 0E1A              __ptext428 0013              __ptext445 0E01              __ptext437 0F2E  
            __ptext429 0E59              __ptext446 0000              __ptext438 0F94              __ptext439 0E0E  
             ?___ftdiv 003A               ?___ftneg 0078               ?___ftmul 002A               ?___fttol 0078  
             ?_adc_hex 0078               ?___lwdiv 0070               ?___lwmod 0070              __pstrings 0800  
             ?_command 0070       ___lwdiv@quotient 0075             ?_adc_value 0070            __stringbase 0805  
        ??_temperature 007E       __size_of___awdiv 0074       __size_of___ftadd 0146       __size_of___awmod 0066  
     __size_of___ftdiv 00C8       __size_of___ftneg 000C       __size_of___ftmul 00EE       __size_of___fttol 00A6  
     __size_of_adc_hex 00AD       __size_of___lwdiv 004E       __size_of___lwmod 0044               ___awtoft 0E72  
             ___ftpack 00B1               _adc_init 0E01               ___lwtoft 0E42       __size_of_command 0014  
       temperature@num 003A        ___lwdiv@divisor 0070        ___lwdiv@counter 0077    __end_of_temperature 06BA  
          ??_adc_value 007C               _lcd_data 0E2E               _lcd_init 0E59               _lcd_send 0013  
        __size_of_main 00E3               clear_ram 0E06          temperature@f1 0055          temperature@x1 003D  
        temperature@x2 003F          temperature@x3 0041          temperature@x4 0043       ___lwmod@dividend 0072  
            stringcode 0800            _temperature 059F           temperature@n 0047        ___lwmod@divisor 0070  
      ___lwmod@counter 0075               stringdir 0800               stringtab 0800  
